(dp0
((F3.0
F11.0
F10.0
tp1
I00
tp2
F94.60126875861414
s((F13.0
F5.0
F10.0
tp3
I01
tp4
F0.0
s((F6.0
F15.0
F9.0
tp5
S'x'
p6
tp7
F-14.056770000000002
s((F4.0
F11.0
F7.0
tp8
I00
tp9
F0.012686055680323697
s((F10.0
F8.0
F3.0
tp10
I01
tp11
F0.0
s((F10.0
F15.0
F9.0
tp12
g6
tp13
F-5.0
s((F20.0
F13.0
F5.0
tp14
I01
tp15
F0.0
s((F8.0
F18.0
F8.0
tp16
I01
tp17
F0.0
s((F2.0
F12.0
F6.0
tp18
I00
tp19
F99.99999999999996
s((F12.0
F9.0
F9.0
tp20
I00
tp21
F2.427650281308238
s((F20.0
F12.0
F5.0
tp22
I01
tp23
F0.0
s((F17.0
F9.0
F3.0
tp24
I00
tp25
F0.009498457479746161
s((F10.0
F7.0
F5.0
tp26
I00
tp27
F0.0
s((F13.0
F15.0
F10.0
tp28
g6
tp29
F-6.5
s((F16.0
F16.0
F10.0
tp30
I00
tp31
F0.0
s((F16.0
F17.0
F7.0
tp32
I00
tp33
F0.0
s((F19.0
F11.0
F9.0
tp34
I00
tp35
F0.0
s((F18.0
F8.0
F4.0
tp36
I00
tp37
F0.0
s((F19.0
F10.0
F8.0
tp38
I00
tp39
F0.0
s((F2.0
F11.0
F7.0
tp40
I00
tp41
F0.0
s((F20.0
F10.0
F8.0
tp42
I01
tp43
F0.0
s((F10.0
F11.0
F7.0
tp44
I00
tp45
F10.173639027164613
s((F7.0
F6.0
F10.0
tp46
I01
tp47
F0.0
s((F14.0
F11.0
F6.0
tp48
I00
tp49
F0.0
s((F1.0
F12.0
F7.0
tp50
I01
tp51
F99.99992864011183
s((F8.0
F17.0
F10.0
tp52
I01
tp53
F-0.665
s((F11.0
F16.0
F5.0
tp54
I01
tp55
F0.0
s((F10.0
F16.0
F7.0
tp56
I00
tp57
F-0.00013075000000000006
s((F11.0
F9.0
F10.0
tp58
I01
tp59
F13.64312897408617
s((F17.0
F8.0
F9.0
tp60
I00
tp61
F0.0
s((F13.0
F7.0
F10.0
tp62
I00
tp63
F0.0
s((F16.0
F9.0
F2.0
tp64
I01
tp65
F1.8595950527799512
s((F10.0
F11.0
F3.0
tp66
I01
tp67
F13.643129028083342
s((F7.0
F12.0
F3.0
tp68
I00
tp69
F3.581815111813794
s((F12.0
F19.0
F7.0
tp70
g6
tp71
F-6.0
s((F8.0
F14.0
F9.0
tp72
I00
tp73
F-0.5075797798869524
s((F11.0
F18.0
F10.0
tp74
I01
tp75
F-0.55
s((F18.0
F7.0
F0.0
tp76
I01
tp77
F7.548156717895598e-10
s((F8.0
F17.0
F9.0
tp78
I00
tp79
F0.0
s((F8.0
F12.0
F6.0
tp80
I00
tp81
F13.643129028042322
s((F12.0
F8.0
F8.0
tp82
I01
tp83
F1.1152377686963726e-05
s((F8.0
F13.0
F3.0
tp84
I00
tp85
F5.9216513662407175
s((F11.0
F11.0
F3.0
tp86
I00
tp87
F13.643129028073073
s((F20.0
F14.0
F8.0
tp88
I01
tp89
F0.0
s((F19.0
F8.0
F2.0
tp90
I01
tp91
F0.40175617990808954
s((F13.0
F17.0
F7.0
tp92
I00
tp93
F0.0
s((F13.0
F18.0
F7.0
tp94
I00
tp95
F0.0
s((F16.0
F4.0
F1.0
tp96
g6
tp97
F-8.0
s((F14.0
F15.0
F9.0
tp98
I00
tp99
F-0.09570046294711317
s((F12.0
F17.0
F9.0
tp100
I01
tp101
F0.0
s((F12.0
F18.0
F10.0
tp102
I01
tp103
F-0.55
s((F13.0
F12.0
F9.0
tp104
I01
tp105
F-0.19855
s((F19.0
F12.0
F10.0
tp106
I00
tp107
F0.0
s((F9.0
F15.0
F7.0
tp108
I01
tp109
F0.0
s((F4.0
F12.0
F9.0
tp110
I01
tp111
F0.0
s((F16.0
F10.0
F6.0
tp112
I00
tp113
F0.2791522381451944
s((F5.0
F13.0
F8.0
tp114
I00
tp115
F0.0
s((F8.0
F11.0
F10.0
tp116
I01
tp117
F13.643129028083322
s((F19.0
F13.0
F8.0
tp118
I00
tp119
F0.0
s((F15.0
F11.0
F4.0
tp120
I00
tp121
F0.3220269427871023
s((F11.0
F10.0
F9.0
tp122
I00
tp123
F2.5553579943497757
s((F13.0
F9.0
F5.0
tp124
I01
tp125
F1.1152377686963726e-06
s((F7.0
F15.0
F8.0
tp126
g6
tp127
F-9.485
s((F5.0
F16.0
F10.0
tp128
g6
tp129
F-16.2830389975
s((F14.0
F10.0
F2.0
tp130
I00
tp131
F1.9618565525055065
s((F20.0
F9.0
F4.0
tp132
I00
tp133
F0.20775361783934185
s((F3.0
F12.0
F10.0
tp134
I00
tp135
F-0.13500000000000004
s((F10.0
F10.0
F5.0
tp136
I01
tp137
F13.643129028083358
s((F15.0
F17.0
F10.0
tp138
I01
tp139
F-0.065
s((F17.0
F14.0
F5.0
tp140
I00
tp141
F0.0
s((F18.0
F6.0
F1.0
tp142
I00
tp143
F0.0
s((F13.0
F19.0
F9.0
tp144
g6
tp145
F-12.350000000000001
s((F18.0
F12.0
F10.0
tp146
I01
tp147
F0.0
s((F15.0
F9.0
F1.0
tp148
I01
tp149
F-1.33
s((F6.0
F14.0
F6.0
tp150
I00
tp151
F-12.553902662892746
s((F7.0
F15.0
F7.0
tp152
g6
tp153
F-6.65
s((F15.0
F18.0
F10.0
tp154
I01
tp155
F-0.06450000000000002
s((F5.0
F11.0
F7.0
tp156
I00
tp157
F0.0
s((F7.0
F12.0
F1.0
tp158
I01
tp159
F13.64312902765143
s((F8.0
F14.0
F8.0
tp160
I01
tp161
F-0.12285300000000003
s((F11.0
F9.0
F1.0
tp162
I00
tp163
F-0.5
s((F16.0
F10.0
F10.0
tp164
I00
tp165
F0.0
s((F18.0
F11.0
F4.0
tp166
I01
tp167
F0.0
s((F3.0
F11.0
F9.0
tp168
I00
tp169
F1.0202947906035398e-08
s((F9.0
F15.0
F4.0
tp170
I01
tp171
F0.0
s((F12.0
F17.0
F10.0
tp172
I01
tp173
F-3.1928050000000003
s((F14.0
F13.0
F4.0
tp174
I00
tp175
F0.0
s((F18.0
F9.0
F5.0
tp176
I01
tp177
F0.24400204975977738
s((F6.0
F14.0
F10.0
tp178
I01
tp179
F-6.756589978634311
s((F10.0
F18.0
F6.0
tp180
I00
tp181
F0.0
s((F16.0
F3.0
F-1.0
tp182
g6
tp183
F-8.0
s((F8.0
F16.0
F4.0
tp184
I01
tp185
F0.0
s((F7.0
F16.0
F8.0
tp186
I00
tp187
F0.0
s((F12.0
F17.0
F6.0
tp188
I00
tp189
F0.0
s((F5.0
F7.0
F9.0
tp190
g6
tp191
F-2.5
s((F10.0
F13.0
F6.0
tp192
I00
tp193
F0.0
s((F11.0
F16.0
F8.0
tp194
I01
tp195
F0.0
s((F18.0
F11.0
F0.0
tp196
I01
tp197
F0.0
s((F2.0
F11.0
F4.0
tp198
I00
tp199
F0.0
s((F3.0
F13.0
F10.0
tp200
g6
tp201
F-7.028385000000001
s((F15.0
F17.0
F9.0
tp202
I01
tp203
F0.0
s((F12.0
F14.0
F10.0
tp204
I01
tp205
F-1.045
s((F14.0
F17.0
F7.0
tp206
I00
tp207
F0.0
s((F12.0
F15.0
F5.0
tp208
I00
tp209
F0.0
s((F4.0
F12.0
F2.0
tp210
I01
tp211
F7.2909074343024205
s((F12.0
F8.0
F10.0
tp212
I00
tp213
F0.0
s((F7.0
F10.0
F8.0
tp214
I01
tp215
F0.0
s((F16.0
F7.0
F2.0
tp216
I00
tp217
F0.0
s((F12.0
F13.0
F8.0
tp218
g6
tp219
F-11.4
s((F10.0
F17.0
F9.0
tp220
I00
tp221
F-0.45
s((F4.0
F13.0
F9.0
tp222
I00
tp223
F-0.28500000000000003
s((F16.0
F6.0
F10.0
tp224
g6
tp225
F-15.2
s((F7.0
F17.0
F8.0
tp226
I00
tp227
F-0.2835000000000001
s((F18.0
F10.0
F2.0
tp228
I01
tp229
F0.16822607065037484
s((F17.0
F11.0
F8.0
tp230
I00
tp231
F0.0
s((F10.0
F17.0
F10.0
tp232
I01
tp233
F-0.45
s((F17.0
F5.0
F-1.0
tp234
g6
tp235
F-8.5
s((F8.0
F16.0
F10.0
tp236
g6
tp237
F-10.84
s((F9.0
F10.0
F10.0
tp238
I00
tp239
F1.4287967246703444
s((F18.0
F14.0
F7.0
tp240
I01
tp241
F0.0
s((F12.0
F11.0
F5.0
tp242
I01
tp243
F0.0
s((F7.0
F14.0
F7.0
tp244
I01
tp245
F-2.0742624093861215
s((F20.0
F11.0
F3.0
tp246
I00
tp247
F0.14210803469560143
s((F11.0
F13.0
F9.0
tp248
g6
tp249
F-5.5
s((F18.0
F9.0
F2.0
tp250
I01
tp251
F0.5706804139066431
s((F8.0
F18.0
F9.0
tp252
I00
tp253
F-1.0886715
s((F6.0
F14.0
F9.0
tp254
I01
tp255
F-7.173023443106761
s((F12.0
F12.0
F10.0
tp256
I01
tp257
F-1.2872500000000003e-06
s((F6.0
F13.0
F9.0
tp258
I01
tp259
F-0.6775000000000001
s((F11.0
F17.0
F6.0
tp260
I01
tp261
F0.0
s((F12.0
F16.0
F8.0
tp262
I01
tp263
F0.0
s((F19.0
F9.0
F7.0
tp264
I01
tp265
F0.12761640266777208
s((F11.0
F8.0
F1.0
tp266
S'x'
p267
tp268
F-22.52305
s((F17.0
F7.0
F10.0
tp269
I01
tp270
F1.1739371821984534
s((F8.0
F14.0
F3.0
tp271
I00
tp272
F1.028651121729978
s((F7.0
F6.0
F1.0
tp273
I00
tp274
F0.0
s((F11.0
F15.0
F8.0
tp275
I00
tp276
F-0.9405
s((F17.0
F13.0
F6.0
tp277
I01
tp278
F0.0
s((F18.0
F12.0
F8.0
tp279
I00
tp280
F0.0
s((F5.0
F12.0
F4.0
tp281
I00
tp282
F0.012273577331065023
s((F14.0
F8.0
F3.0
tp283
I01
tp284
F0.0
s((F15.0
F14.0
F9.0
tp285
I00
tp286
F-0.05808262138109121
s((F16.0
F7.0
F8.0
tp287
I00
tp288
F0.0
s((F5.0
F11.0
F1.0
tp289
I01
tp290
F11.385989117981643
s((F11.0
F10.0
F10.0
tp291
I00
tp292
F3.0457082351443057
s((F16.0
F7.0
F-1.0
tp293
g6
tp294
F-32.7608
s((F9.0
F9.0
F6.0
tp295
I01
tp296
F0.0
s((F6.0
F13.0
F5.0
tp297
I01
tp298
F0.0
s((F10.0
F15.0
F5.0
tp299
I01
tp300
F0.0
s((F18.0
F8.0
F0.0
tp301
I01
tp302
F0.8291931768626832
s((F14.0
F12.0
F6.0
tp303
I00
tp304
F0.0
s((F14.0
F16.0
F9.0
tp305
I01
tp306
F-0.11400000000000002
s((F1.0
F13.0
F9.0
tp307
I01
tp308
F0.0
s((F7.0
F16.0
F7.0
tp309
I01
tp310
F0.0
s((F11.0
F16.0
F9.0
tp311
g6
tp312
F-25.770745
s((F5.0
F13.0
F4.0
tp313
I00
tp314
F0.0
s((F12.0
F19.0
F10.0
tp315
I01
tp316
F-1.045
s((F12.0
F12.0
F9.0
tp317
I01
tp318
F-0.09500000000000001
s((F11.0
F11.0
F6.0
tp319
I00
tp320
F0.2930555439608192
s((F8.0
F16.0
F6.0
tp321
I00
tp322
F0.0
s((F9.0
F12.0
F9.0
tp323
I01
tp324
F-0.07311212118167927
s((F10.0
F12.0
F7.0
tp325
I00
tp326
F-0.0012872500000000004
s((F11.0
F17.0
F5.0
tp327
I01
tp328
F0.0
s((F9.0
F12.0
F10.0
tp329
I00
tp330
F-0.0035323474750000006
s((F12.0
F10.0
F3.0
tp331
I00
tp332
F12.512419426952867
s((F7.0
F14.0
F8.0
tp333
I00
tp334
F-2.9511679067856575
s((F19.0
F9.0
F4.0
tp335
I00
tp336
F0.2944861138142242
s((F11.0
F15.0
F6.0
tp337
I01
tp338
F0.0
s((F14.0
F16.0
F6.0
tp339
I00
tp340
F0.0
s((F12.0
F14.0
F8.0
tp341
I00
tp342
F0.0
s((F19.0
F12.0
F7.0
tp343
I00
tp344
F0.0
s((F15.0
F16.0
F8.0
tp345
I00
tp346
F0.0
s((F16.0
F14.0
F9.0
tp347
I00
tp348
F0.0
s((F6.0
F18.0
F7.0
tp349
I00
tp350
F-0.8170000000000002
s((F10.0
F9.0
F8.0
tp351
I00
tp352
F0.0
s((F14.0
F11.0
F8.0
tp353
I00
tp354
F0.0
s((F7.0
F15.0
F6.0
tp355
I01
tp356
F-0.40508775585475
s((F3.0
F11.0
F5.0
tp357
I00
tp358
F99.99999999999996
s((F20.0
F9.0
F1.0
tp359
I00
tp360
F0.5557794428050321
s((F20.0
F10.0
F2.0
tp361
I00
tp362
F0.3821820776331857
s((F8.0
F14.0
F9.0
tp363
I01
tp364
F-2.7232415000000003
s((F18.0
F8.0
F3.0
tp365
I01
tp366
F7.598896144055939e-10
s((F13.0
F13.0
F9.0
tp367
I01
tp368
F-0.3593755
s((F9.0
F8.0
F10.0
tp369
I00
tp370
F0.0
s((F9.0
F17.0
F9.0
tp371
I01
tp372
F-0.76
s((F17.0
F10.0
F9.0
tp373
I00
tp374
F0.0
s((F15.0
F8.0
F7.0
tp375
I01
tp376
F0.0
s((F16.0
F5.0
F-1.0
tp377
g6
tp378
F-8.0
s((F14.0
F9.0
F8.0
tp379
I00
tp380
F0.0
s((F14.0
F8.0
F10.0
tp381
I00
tp382
F1.2559685212587666e-06
s((F8.0
F14.0
F5.0
tp383
I00
tp384
F0.0
s((F8.0
F15.0
F4.0
tp385
I00
tp386
F0.0
s((F5.0
F17.0
F4.0
tp387
g6
tp388
F-2.5
s((F17.0
F9.0
F1.0
tp389
I01
tp390
F0.7397182843361992
s((F18.0
F11.0
F7.0
tp391
I00
tp392
F0.0
s((F13.0
F17.0
F9.0
tp393
I00
tp394
F-1.4588646000000003
s((F11.0
F6.0
F10.0
tp395
I01
tp396
F0.0
s((F16.0
F9.0
F10.0
tp397
g6
tp398
F-32.7608
s((F6.0
F11.0
F4.0
tp399
I01
tp400
F8.891333485540956
s((F16.0
F2.0
F-2.0
tp401
g6
tp402
F-8.0
s((F6.0
F18.0
F7.0
tp403
g6
tp404
F-3.0
s((F4.0
F11.0
F8.0
tp405
I00
tp406
F0.0
s((F11.0
F8.0
F10.0
tp407
I01
tp408
F12.44931654137302
s((F12.0
F11.0
F9.0
tp409
I00
tp410
F0.0
s((F18.0
F12.0
F9.0
tp411
I01
tp412
F0.0
s((F18.0
F11.0
F3.0
tp413
I01
tp414
F0.0
s((F13.0
F14.0
F9.0
tp415
I01
tp416
F-1.1400000000000001
s((F10.0
F16.0
F5.0
tp417
I01
tp418
F0.0
s((F9.0
F10.0
F6.0
tp419
I00
tp420
F0.02794519122318397
s((F14.0
F10.0
F10.0
tp421
I00
tp422
F0.0
s((F7.0
F15.0
F9.0
tp423
I01
tp424
F-0.50314525
s((F11.0
F12.0
F2.0
tp425
I00
tp426
F2.934107574596143
s((F9.0
F9.0
F3.0
tp427
I01
tp428
F0.0
s((F6.0
F11.0
F8.0
tp429
I00
tp430
F0.0
s((F19.0
F12.0
F2.0
tp431
I00
tp432
F0.029375030650737658
s((F11.0
F15.0
F7.0
tp433
I01
tp434
F0.0
s((F16.0
F5.0
F9.0
tp435
I01
tp436
F2.884581751119909e-08
s((F11.0
F8.0
F9.0
tp437
I00
tp438
F0.0
s((F12.0
F17.0
F10.0
tp439
g6
tp440
F-16.259999999999998
s((F10.0
F14.0
F9.0
tp441
I00
tp442
F-1.6966251348316552
s((F10.0
F8.0
F9.0
tp443
I01
tp444
F0.0
s((F9.0
F14.0
F8.0
tp445
I00
tp446
F-0.2110575036023855
s((F7.0
F12.0
F10.0
tp447
I00
tp448
F0.0
s((F7.0
F10.0
F6.0
tp449
I01
tp450
F0.0
s((F6.0
F12.0
F5.0
tp451
I00
tp452
F2.7338984045508053e-10
s((F7.0
F12.0
F5.0
tp453
I00
tp454
F1.6827875143200353
s((F6.0
F11.0
F7.0
tp455
I01
tp456
F0.0
s((F8.0
F8.0
F9.0
tp457
I01
tp458
F0.0
s((F19.0
F13.0
F6.0
tp459
I00
tp460
F0.0
s((F3.0
F13.0
F8.0
tp461
g6
tp462
F-5.1585
s((F11.0
F15.0
F4.0
tp463
I00
tp464
F0.0
s((F5.0
F11.0
F9.0
tp465
I00
tp466
F0.0
s((F12.0
F18.0
F8.0
tp467
I00
tp468
F0.0
s((F16.0
F12.0
F5.0
tp469
I00
tp470
F0.0
s((F7.0
F19.0
F9.0
tp471
g6
tp472
F-3.5
s((F5.0
F13.0
F3.0
tp473
I00
tp474
F1.124461837215252
s((F10.0
F14.0
F10.0
tp475
I01
tp476
F-1.5835500000000002
s((F7.0
F11.0
F7.0
tp477
I00
tp478
F8.746507243417945
s((F5.0
F15.0
F10.0
tp479
g6
tp480
F-22.264525271712195
s((F16.0
F15.0
F10.0
tp481
I01
tp482
F-0.0006000000000000003
s((F12.0
F9.0
F3.0
tp483
I01
tp484
F12.060050445468883
s((F7.0
F12.0
F9.0
tp485
I01
tp486
F-0.022019425000000006
s((F17.0
F11.0
F4.0
tp487
I01
tp488
F0.0
s((F16.0
F13.0
F4.0
tp489
I01
tp490
F0.0
s((F13.0
F14.0
F10.0
tp491
I01
tp492
F-0.6000000000000001
s((F16.0
F11.0
F4.0
tp493
I01
tp494
F0.0
s((F12.0
F18.0
F9.0
tp495
g6
tp496
F-6.0
s((F19.0
F9.0
F9.0
tp497
I00
tp498
F0.0
s((F16.0
F8.0
F1.0
tp499
I01
tp500
F-2.1679999996376593
s((F8.0
F8.0
F10.0
tp501
I00
tp502
F0.0
s((F12.0
F17.0
F8.0
tp503
I00
tp504
F-0.3247695000000001
s((F16.0
F12.0
F6.0
tp505
I01
tp506
F0.0
s((F16.0
F5.0
F10.0
tp507
I01
tp508
F0.0
s((F13.0
F11.0
F7.0
tp509
I00
tp510
F0.0
s((F11.0
F9.0
F3.0
tp511
I00
tp512
F0.0
s((F13.0
F10.0
F4.0
tp513
I01
tp514
F0.0
s((F13.0
F9.0
F7.0
tp515
I01
tp516
F0.0
s((F19.0
F9.0
F3.0
tp517
I00
tp518
F0.15529137894808237
s((F16.0
F8.0
F2.0
tp519
I00
tp520
F0.0
s((F15.0
F11.0
F7.0
tp521
I01
tp522
F0.0
s((F11.0
F13.0
F7.0
tp523
I01
tp524
F-0.020868124000000005
s((F8.0
F15.0
F10.0
tp525
I00
tp526
F-0.7631031235838787
s((F16.0
F15.0
F9.0
tp527
I01
tp528
F0.0
s((F12.0
F15.0
F9.0
tp529
I00
tp530
F-4.3421242489484815
s((F13.0
F13.0
F7.0
tp531
I00
tp532
F0.0
s((F18.0
F10.0
F10.0
tp533
I01
tp534
F0.0
s((F11.0
F9.0
F4.0
tp535
I01
tp536
F13.643129012135972
s((F14.0
F14.0
F4.0
tp537
I00
tp538
F0.0
s((F17.0
F9.0
F-1.0
tp539
I01
tp540
F-0.8
s((F18.0
F13.0
F6.0
tp541
I00
tp542
F0.0
s((F13.0
F18.0
F9.0
tp543
I01
tp544
F-1.1400000000000001
s((F17.0
F11.0
F3.0
tp545
I01
tp546
F0.0
s((F18.0
F9.0
F10.0
tp547
I01
tp548
F0.1898802860155186
s((F18.0
F12.0
F2.0
tp549
I01
tp550
F0.0
s((F17.0
F13.0
F9.0
tp551
I00
tp552
F0.0
s((F15.0
F7.0
F10.0
tp553
I01
tp554
F5.524618718728078e-07
s((F1.0
F12.0
F9.0
tp555
I00
tp556
F43.827938497607654
s((F15.0
F12.0
F8.0
tp557
I00
tp558
F0.0
s((F16.0
F11.0
F6.0
tp559
I01
tp560
F0.0
s((F16.0
F13.0
F9.0
tp561
I00
tp562
F0.0
s((F20.0
F12.0
F0.0
tp563
I00
tp564
F0.01553224259883275
s((F15.0
F14.0
F6.0
tp565
I01
tp566
F0.0
s((F15.0
F9.0
F5.0
tp567
I01
tp568
F1.3594437503536856
s((F13.0
F8.0
F9.0
tp569
I00
tp570
F8.271718530420997e-06
s((F6.0
F15.0
F6.0
tp571
I00
tp572
F-2.003089725
s((F19.0
F9.0
F6.0
tp573
I01
tp574
F0.20344468101343205
s((F8.0
F12.0
F8.0
tp575
I01
tp576
F-0.07259750000000001
s((F14.0
F15.0
F6.0
tp577
I00
tp578
F0.0
s((F19.0
F10.0
F5.0
tp579
I00
tp580
F0.19724037072519873
s((F17.0
F8.0
F4.0
tp581
I01
tp582
F0.0
s((F16.0
F11.0
F10.0
tp583
I00
tp584
F0.0
s((F15.0
F10.0
F3.0
tp585
I01
tp586
F1.5824762874189378
s((F9.0
F10.0
F8.0
tp587
I01
tp588
F2.9087393418246714
s((F14.0
F16.0
F10.0
tp589
I01
tp590
F-0.06000000000000001
s((F14.0
F18.0
F9.0
tp591
I00
tp592
F0.0
s((F9.0
F17.0
F10.0
tp593
I00
tp594
F-2.338382947680001
s((F20.0
F13.0
F8.0
tp595
I00
tp596
F0.0
s((F19.0
F14.0
F5.0
tp597
I01
tp598
F0.0
s((F14.0
F9.0
F7.0
tp599
I01
tp600
F0.0
s((F12.0
F15.0
F6.0
tp601
I00
tp602
F0.0
s((F2.0
F12.0
F9.0
tp603
I00
tp604
F0.0
s((F20.0
F14.0
F5.0
tp605
I01
tp606
F0.0
s((F12.0
F8.0
F3.0
tp607
I01
tp608
F0.0
s((F18.0
F8.0
F10.0
tp609
I00
tp610
F0.0
s((F3.0
F10.0
F5.0
tp611
I01
tp612
F0.0
s((F15.0
F9.0
F3.0
tp613
I00
tp614
F0.0
s((F16.0
F10.0
F4.0
tp615
I01
tp616
F0.11272556070638154
s((F10.0
F10.0
F2.0
tp617
I00
tp618
F0.0
s((F11.0
F15.0
F9.0
tp619
I00
tp620
F-0.2630632950000001
s((F4.0
F8.0
F1.0
tp621
g6
tp622
F-2.0
s((F16.0
F11.0
F3.0
tp623
I00
tp624
F1.0529670922346648
s((F14.0
F18.0
F10.0
tp625
I01
tp626
F-0.6450000000000001
s((F12.0
F12.0
F8.0
tp627
I01
tp628
F0.0
s((F16.0
F8.0
F8.0
tp629
I01
tp630
F0.0
s((F18.0
F9.0
F-2.0
tp631
I01
tp632
F0.505244485584314
s((F2.0
F13.0
F8.0
tp633
I01
tp634
F0.0
s((F17.0
F9.0
F6.0
tp635
I01
tp636
F0.4389490578963776
s((F20.0
F14.0
F2.0
tp637
I00
tp638
F0.0
s((F9.0
F12.0
F2.0
tp639
I00
tp640
F12.242348531085998
s((F19.0
F9.0
F5.0
tp641
I01
tp642
F0.14824660811635307
s((F18.0
F10.0
F-2.0
tp643
I01
tp644
F0.21586765743981284
s((F16.0
F7.0
F10.0
tp645
I01
tp646
F1.1540902420742087
s((F17.0
F9.0
F5.0
tp647
I00
tp648
F0.8525786946063377
s((F13.0
F7.0
F7.0
tp649
I01
tp650
F2.6159898278063056e-06
s((F5.0
F11.0
F10.0
tp651
I01
tp652
F13.643129028083269
s((F10.0
F10.0
F9.0
tp653
I00
tp654
F0.8437850513240134
s((F7.0
F13.0
F9.0
tp655
I01
tp656
F-1.046330962775
s((F13.0
F13.0
F4.0
tp657
I00
tp658
F0.0
s((F20.0
F11.0
F6.0
tp659
I00
tp660
F0.0
s((F15.0
F6.0
F8.0
tp661
I00
tp662
F0.0
s((F16.0
F13.0
F8.0
tp663
I00
tp664
F0.0
s((F14.0
F10.0
F7.0
tp665
I00
tp666
F0.0
s((F17.0
F12.0
F7.0
tp667
I00
tp668
F0.0
s((F20.0
F14.0
F6.0
tp669
I01
tp670
F0.0
s((F19.0
F7.0
F0.0
tp671
I00
tp672
F9.163597594040629e-12
s((F18.0
F12.0
F7.0
tp673
I00
tp674
F0.0
s((F9.0
F16.0
F9.0
tp675
I01
tp676
F-0.4
s((F9.0
F13.0
F6.0
tp677
I00
tp678
F0.0
s((F6.0
F14.0
F3.0
tp679
I01
tp680
F-1.7939261587974997
s((F8.0
F12.0
F9.0
tp681
I01
tp682
F-0.17712693619681005
s((F10.0
F14.0
F7.0
tp683
I00
tp684
F-1.6585155000000005
s((F13.0
F19.0
F10.0
tp685
I00
tp686
F-1.1400000000000001
s((F7.0
F14.0
F7.0
tp687
I00
tp688
F-2.270093504590152
s((F7.0
F13.0
F5.0
tp689
I00
tp690
F0.09966193974995743
s((F17.0
F14.0
F10.0
tp691
I00
tp692
F0.0
s((F17.0
F7.0
F-2.0
tp693
g6
tp694
F-8.5
s((F16.0
F9.0
F4.0
tp695
I01
tp696
F1.04165624775562
s((F16.0
F10.0
F7.0
tp697
I01
tp698
F0.0
s((F7.0
F13.0
F10.0
tp699
I00
tp700
F-1.0420384653254664
s((F14.0
F18.0
F7.0
tp701
I00
tp702
F0.0
s((F20.0
F11.0
F9.0
tp703
I01
tp704
F0.0
s((F15.0
F15.0
F7.0
tp705
I01
tp706
F0.0
s((F11.0
F19.0
F8.0
tp707
g6
tp708
F-14.905
s((F11.0
F18.0
F9.0
tp709
g6
tp710
F-14.905
s((F7.0
F11.0
F8.0
tp711
I01
tp712
F0.0
s((F14.0
F13.0
F10.0
tp713
I01
tp714
F-0.06000000000000001
s((F11.0
F14.0
F8.0
tp715
g6
tp716
F-25.770745
s((F12.0
F12.0
F7.0
tp717
I01
tp718
F0.0
s((F8.0
F10.0
F10.0
tp719
I01
tp720
F13.643129028083322
s((F19.0
F14.0
F4.0
tp721
I01
tp722
F0.0
s((F13.0
F10.0
F8.0
tp723
I01
tp724
F0.0
s((F7.0
F18.0
F8.0
tp725
g6
tp726
F-9.485
s((F17.0
F9.0
F0.0
tp727
I01
tp728
F-1.5199956105802872
s((F17.0
F9.0
F9.0
tp729
I01
tp730
F0.0
s((F19.0
F8.0
F4.0
tp731
I01
tp732
F4.669231538203535e-11
s((F11.0
F10.0
F2.0
tp733
I01
tp734
F13.324133922517888
s((F17.0
F14.0
F9.0
tp735
I01
tp736
F0.0
s((F16.0
F9.0
F3.0
tp737
I00
tp738
F0.18959836949775025
s((F7.0
F18.0
F10.0
tp739
I00
tp740
F0.0
s((F14.0
F13.0
F6.0
tp741
I00
tp742
F0.0
s((F14.0
F11.0
F5.0
tp743
I01
tp744
F0.0
s((F12.0
F14.0
F7.0
tp745
I00
tp746
F-1.8980479398322533e-121
s((F19.0
F14.0
F7.0
tp747
I00
tp748
F0.0
s((F20.0
F13.0
F6.0
tp749
I01
tp750
F0.0
s((F8.0
F17.0
F10.0
tp751
g6
tp752
F-7.6
s((F16.0
F14.0
F5.0
tp753
I00
tp754
F0.0
s((F19.0
F15.0
F9.0
tp755
I01
tp756
F0.0
s((F19.0
F11.0
F3.0
tp757
I00
tp758
F0.18350106616288217
s((F19.0
F8.0
F3.0
tp759
I00
tp760
F0.0
s((F17.0
F4.0
F0.0
tp761
I01
tp762
F0.0
s((F11.0
F19.0
F10.0
tp763
I01
tp764
F-0.5
s((F13.0
F16.0
F9.0
tp765
I00
tp766
F-0.4374000000000001
s((F14.0
F12.0
F8.0
tp767
I01
tp768
F0.0
s((F14.0
F13.0
F9.0
tp769
I01
tp770
F-0.06000000000000001
s((F15.0
F12.0
F4.0
tp771
I00
tp772
F0.0
s((F7.0
F14.0
F2.0
tp773
I00
tp774
F7.907634395043473
s((F9.0
F18.0
F8.0
tp775
I01
tp776
F0.0
s((F3.0
F13.0
F10.0
tp777
I00
tp778
F-1.1012950000000004
s((F20.0
F13.0
F5.0
tp779
I00
tp780
F0.0
s((F4.0
F13.0
F6.0
tp781
I00
tp782
F5.9116422262579145e-05
s((F19.0
F9.0
F10.0
tp783
I01
tp784
F0.07564415619499487
s((F7.0
F17.0
F9.0
tp785
I00
tp786
F-1.3223809620000002
s((F17.0
F10.0
F6.0
tp787
I00
tp788
F0.13729249653457318
s((F8.0
F14.0
F7.0
tp789
I00
tp790
F-0.9431691653392056
s((F15.0
F10.0
F7.0
tp791
I01
tp792
F0.0
s((F17.0
F9.0
F3.0
tp793
I01
tp794
F0.6546707450335068
s((F15.0
F11.0
F9.0
tp795
I00
tp796
F0.0
s((F20.0
F10.0
F7.0
tp797
I00
tp798
F0.010496420275949185
s((F19.0
F11.0
F9.0
tp799
I01
tp800
F0.0
s((F19.0
F10.0
F8.0
tp801
I01
tp802
F0.0
s((F17.0
F16.0
F8.0
tp803
I00
tp804
F0.0
s((F20.0
F10.0
F8.0
tp805
I00
tp806
F0.0
s((F19.0
F12.0
F9.0
tp807
I01
tp808
F0.0
s((F10.0
F17.0
F9.0
tp809
g6
tp810
F-9.5
s((F14.0
F11.0
F6.0
tp811
I01
tp812
F0.0
s((F6.0
F14.0
F8.0
tp813
I01
tp814
F-6.176091079171219
s((F1.0
F12.0
F7.0
tp815
I00
tp816
F99.99999999999996
s((F6.0
F12.0
F2.0
tp817
I01
tp818
F0.0016276272779485524
s((F11.0
F16.0
F5.0
tp819
I00
tp820
F0.0
s((F10.0
F16.0
F7.0
tp821
I01
tp822
F0.0
s((F5.0
F13.0
F5.0
tp823
g6
tp824
F-19.852721697633775
s((F16.0
F9.0
F1.0
tp825
I01
tp826
F-2.749773023604196
s((F11.0
F16.0
F8.0
tp827
g6
tp828
F-31.324303450000002
s((F20.0
F10.0
F4.0
tp829
I01
tp830
F1.0163735203820257e-11
s((F10.0
F11.0
F3.0
tp831
I00
tp832
F13.643129028083358
s((F18.0
F8.0
F5.0
tp833
I00
tp834
F0.0
s((F19.0
F10.0
F0.0
tp835
I00
tp836
F0.825375638876652
s((F20.0
F9.0
F8.0
tp837
I00
tp838
F0.08773306401019713
s((F8.0
F11.0
F10.0
tp839
I00
tp840
F-0.0033804590200412535
s((F19.0
F13.0
F8.0
tp841
I01
tp842
F0.0
s((F11.0
F17.0
F8.0
tp843
I01
tp844
F-1.045
s((F8.0
F17.0
F6.0
tp845
I01
tp846
F0.0
s((F19.0
F9.0
F9.0
tp847
I01
tp848
F0.0
s((F7.0
F17.0
F10.0
tp849
g6
tp850
F-12.0365
s((F11.0
F11.0
F3.0
tp851
I01
tp852
F13.643129028083333
s((F5.0
F10.0
F1.0
tp853
I01
tp854
F10.053467385673603
s((F20.0
F14.0
F8.0
tp855
I00
tp856
F0.0
s((F6.0
F13.0
F2.0
tp857
I01
tp858
F0.0
s((F12.0
F17.0
F9.0
tp859
I00
tp860
F-0.1045
s((F12.0
F18.0
F10.0
tp861
I00
tp862
F-0.55
s((F7.0
F18.0
F10.0
tp863
g6
tp864
F-12.0365
s((F8.0
F11.0
F1.0
tp865
I01
tp866
F13.369775197080857
s((F13.0
F12.0
F9.0
tp867
I00
tp868
F0.0
s((F6.0
F8.0
F1.0
tp869
I00
tp870
F0.0
s((F12.0
F16.0
F7.0
tp871
g6
tp872
F-11.4
s((F19.0
F12.0
F-1.0
tp873
I00
tp874
F0.23215588994532765
s((F19.0
F12.0
F10.0
tp875
I01
tp876
F0.0
s((F8.0
F12.0
F7.0
tp877
I00
tp878
F5.8233705930106945
s((F6.0
F16.0
F9.0
tp879
I00
tp880
F-3.7423600000000006
s((F14.0
F7.0
F9.0
tp881
I00
tp882
F0.0
s((F12.0
F19.0
F10.0
tp883
g6
tp884
F-20.634
s((F17.0
F15.0
F9.0
tp885
I00
tp886
F0.0
s((F15.0
F13.0
F9.0
tp887
I00
tp888
F-0.019661065101058098
s((F7.0
F15.0
F3.0
tp889
I00
tp890
F0.0
s((F14.0
F15.0
F8.0
tp891
I00
tp892
F-0.05482051957184807
s((F20.0
F9.0
F4.0
tp893
I01
tp894
F0.08737625437713414
s((F15.0
F17.0
F10.0
tp895
I00
tp896
F0.0
s((F19.0
F12.0
F6.0
tp897
I00
tp898
F0.0
s((F9.0
F7.0
F10.0
tp899
I01
tp900
F0.22518795563304775
s((F16.0
F17.0
F8.0
tp901
I00
tp902
F0.0
s((F6.0
F18.0
F9.0
tp903
g6
tp904
F-3.0
s((F5.0
F17.0
F5.0
tp905
g6
tp906
F-2.5
s((F18.0
F12.0
F10.0
tp907
I00
tp908
F0.0
s((F18.0
F8.0
F4.0
tp909
I01
tp910
F0.0
s((F18.0
F10.0
F4.0
tp911
I01
tp912
F1.1456088425656524e-06
s((F15.0
F8.0
F10.0
tp913
I00
tp914
F0.0
s((F6.0
F6.0
F10.0
tp915
g6
tp916
F-3.0
s((F7.0
F12.0
F1.0
tp917
I00
tp918
F12.215802786699252
s((F13.0
F16.0
F9.0
tp919
g6
tp920
F-6.5
s((F9.0
F10.0
F9.0
tp921
I01
tp922
F13.64312902808334
s((F20.0
F11.0
F8.0
tp923
I01
tp924
F0.0
s((F3.0
F11.0
F9.0
tp925
I01
tp926
F0.007699672447331864
s((F9.0
F15.0
F4.0
tp927
I00
tp928
F0.0
s((F8.0
F11.0
F5.0
tp929
I01
tp930
F0.31719301532964056
s((F18.0
F9.0
F5.0
tp931
I00
tp932
F0.5060133712149592
s((F6.0
F14.0
F10.0
tp933
I00
tp934
F-11.739977596593544
s((F19.0
F8.0
F10.0
tp935
I00
tp936
F0.0
s((F18.0
F14.0
F7.0
tp937
I00
tp938
F0.0
s((F16.0
F5.0
F-2.0
tp939
g6
tp940
F-15.2
s((F11.0
F13.0
F9.0
tp941
I00
tp942
F-2.7222388765849113
s((F8.0
F16.0
F4.0
tp943
I00
tp944
F0.0
s((F7.0
F16.0
F8.0
tp945
I01
tp946
F0.0
s((F12.0
F17.0
F6.0
tp947
I01
tp948
F0.0
s((F10.0
F13.0
F6.0
tp949
I01
tp950
F0.0
s((F18.0
F9.0
F1.0
tp951
I01
tp952
F0.5471377883226641
s((F2.0
F11.0
F4.0
tp953
I01
tp954
F99.99999999999996
s((F20.0
F14.0
F4.0
tp955
I00
tp956
F0.0
s((F10.0
F16.0
F7.0
tp957
g6
tp958
F-5.0
s((F17.0
F8.0
F-3.0
tp959
g267
tp960
F-8.5
s((F12.0
F14.0
F10.0
tp961
I00
tp962
F-1.6261245
s((F1.0
F12.0
F10.0
tp963
I00
tp964
F99.99988442984107
s((F15.0
F18.0
F9.0
tp965
I00
tp966
F0.0
s((F5.0
F12.0
F7.0
tp967
I01
tp968
F0.0
s((F5.0
F11.0
F4.0
tp969
I01
tp970
F6.595990778219047
s((F16.0
F7.0
F2.0
tp971
I01
tp972
F0.0
s((F11.0
F10.0
F5.0
tp973
I01
tp974
F13.643129028083376
s((F18.0
F10.0
F2.0
tp975
I00
tp976
F0.7919123522066228
s((F13.0
F8.0
F7.0
tp977
I00
tp978
F0.0
s((F10.0
F10.0
F6.0
tp979
I00
tp980
F13.643129028083342
s((F16.0
F11.0
F8.0
tp981
I00
tp982
F0.0
s((F9.0
F10.0
F10.0
tp983
I01
tp984
F13.64312902808334
s((F9.0
F13.0
F8.0
tp985
g6
tp986
F-8.55
s((F8.0
F14.0
F10.0
tp987
g6
tp988
F-18.74236
s((F12.0
F11.0
F5.0
tp989
I00
tp990
F9.24930998643954
s((F19.0
F13.0
F3.0
tp991
I01
tp992
F0.0
s((F11.0
F14.0
F3.0
tp993
I01
tp994
F0.0
s((F9.0
F13.0
F4.0
tp995
I01
tp996
F0.0
s((F17.0
F9.0
F-2.0
tp997
g6
tp998
F-8.5
s((F17.0
F12.0
F2.0
tp999
I00
tp1000
F0.0433110050422026
s((F12.0
F12.0
F10.0
tp1001
I00
tp1002
F-2.214788950301125
s((F15.0
F6.0
F1.0
tp1003
I01
tp1004
F0.0
s((F5.0
F17.0
F8.0
tp1005
g6
tp1006
F-13.0425775
s((F6.0
F13.0
F9.0
tp1007
I00
tp1008
F-3.1527065275000004
s((F10.0
F12.0
F4.0
tp1009
I01
tp1010
F0.0
s((F11.0
F17.0
F6.0
tp1011
I00
tp1012
F0.0
s((F10.0
F13.0
F5.0
tp1013
I01
tp1014
F0.0
s((F17.0
F11.0
F9.0
tp1015
I00
tp1016
F0.0
s((F10.0
F13.0
F7.0
tp1017
g6
tp1018
F-23.42795
s((F8.0
F11.0
F6.0
tp1019
I00
tp1020
F13.643129028083322
s((F17.0
F7.0
F10.0
tp1021
I00
tp1022
F0.0
s((F20.0
F11.0
F1.0
tp1023
I01
tp1024
F0.0
s((F13.0
F12.0
F10.0
tp1025
I00
tp1026
F-0.4099727692299747
s((F13.0
F8.0
F10.0
tp1027
g267
tp1028
F-12.350000000000001
s((F9.0
F16.0
F3.0
tp1029
I00
tp1030
F0.0
s((F17.0
F13.0
F6.0
tp1031
I00
tp1032
F0.0
s((F20.0
F12.0
F6.0
tp1033
I01
tp1034
F0.0
s((F9.0
F11.0
F7.0
tp1035
I00
tp1036
F12.474217526997132
s((F9.0
F16.0
F10.0
tp1037
I00
tp1038
F-0.21257640000000008
s((F17.0
F9.0
F8.0
tp1039
I01
tp1040
F0.0
s((F10.0
F16.0
F8.0
tp1041
I00
tp1042
F-0.405
s((F17.0
F12.0
F10.0
tp1043
I00
tp1044
F0.0
s((F16.0
F8.0
F10.0
tp1045
g6
tp1046
F-27.512
s((F16.0
F7.0
F8.0
tp1047
I01
tp1048
F0.0
s((F11.0
F10.0
F10.0
tp1049
I01
tp1050
F12.760173157597743
s((F14.0
F9.0
F9.0
tp1051
I01
tp1052
F0.0
s((F12.0
F12.0
F4.0
tp1053
I01
tp1054
F0.0
s((F19.0
F10.0
F3.0
tp1055
I01
tp1056
F0.14821209783153638
s((F6.0
F13.0
F5.0
tp1057
I00
tp1058
F-1.580855936345344e-24
s((F18.0
F8.0
F0.0
tp1059
I00
tp1060
F0.0
s((F13.0
F13.0
F6.0
tp1061
I00
tp1062
F0.0
s((F8.0
F13.0
F7.0
tp1063
I00
tp1064
F-0.9136527717549502
s((F9.0
F15.0
F7.0
tp1065
g6
tp1066
F-8.55
s((F9.0
F15.0
F10.0
tp1067
I01
tp1068
F-1.12
s((F15.0
F7.0
F1.0
tp1069
g6
tp1070
F-7.5
s((F15.0
F5.0
F9.0
tp1071
I00
tp1072
F0.0
s((F17.0
F6.0
F-1.0
tp1073
g6
tp1074
F-8.5
s((F14.0
F8.0
F10.0
tp1075
g267
tp1076
F-18.97
s((F10.0
F14.0
F5.0
tp1077
I00
tp1078
F0.0
s((F13.0
F9.0
F6.0
tp1079
I01
tp1080
F0.0
s((F9.0
F12.0
F9.0
tp1081
I00
tp1082
F-0.21738103543804316
s((F11.0
F15.0
F8.0
tp1083
g6
tp1084
F-10.45
s((F10.0
F12.0
F7.0
tp1085
I01
tp1086
F-0.00012872500000000003
s((F8.0
F15.0
F7.0
tp1087
I01
tp1088
F-0.06138947500000003
s((F9.0
F12.0
F10.0
tp1089
I01
tp1090
F-0.0018360250000000005
s((F12.0
F10.0
F3.0
tp1091
I01
tp1092
F2.590596728281238
s((F19.0
F11.0
F10.0
tp1093
I01
tp1094
F0.0
s((F7.0
F14.0
F8.0
tp1095
I01
tp1096
F-1.0639766844583
s((F7.0
F16.0
F5.0
tp1097
I00
tp1098
F0.0
s((F7.0
F11.0
F10.0
tp1099
I01
tp1100
F13.643129028083306
s((F11.0
F15.0
F6.0
tp1101
I00
tp1102
F0.0
s((F15.0
F16.0
F8.0
tp1103
I01
tp1104
F0.0
s((F16.0
F6.0
F10.0
tp1105
I01
tp1106
F2.4028871457646973e-08
s((F5.0
F13.0
F5.0
tp1107
I00
tp1108
F0.0
s((F6.0
F18.0
F7.0
tp1109
I01
tp1110
F0.0
s((F15.0
F9.0
F9.0
tp1111
I00
tp1112
F0.0
s((F7.0
F11.0
F1.0
tp1113
I00
tp1114
F0.0
s((F16.0
F9.0
F10.0
tp1115
I00
tp1116
F0.0
s((F10.0
F15.0
F3.0
tp1117
I00
tp1118
F0.0
s((F9.0
F10.0
F5.0
tp1119
I01
tp1120
F13.64312902808334
s((F10.0
F17.0
F7.0
tp1121
I00
tp1122
F0.0
s((F7.0
F15.0
F6.0
tp1123
I00
tp1124
F0.0
s((F3.0
F11.0
F5.0
tp1125
I01
tp1126
F0.0006643999210019035
s((F4.0
F9.0
F3.0
tp1127
g6
tp1128
F-2.0
s((F9.0
F17.0
F6.0
tp1129
I00
tp1130
F0.0
s((F14.0
F11.0
F7.0
tp1131
I01
tp1132
F0.0
s((F12.0
F14.0
F9.0
tp1133
I00
tp1134
F-0.2630632950000001
s((F10.0
F9.0
F4.0
tp1135
I00
tp1136
F0.0
s((F9.0
F8.0
F10.0
tp1137
I01
tp1138
F0.0
s((F16.0
F14.0
F7.0
tp1139
I00
tp1140
F0.0
s((F7.0
F11.0
F6.0
tp1141
I01
tp1142
F12.539225202475414
s((F9.0
F13.0
F8.0
tp1143
I01
tp1144
F-0.2604282638442877
s((F15.0
F8.0
F7.0
tp1145
I00
tp1146
F0.0
s((F16.0
F9.0
F9.0
tp1147
I01
tp1148
F0.0
s((F14.0
F9.0
F8.0
tp1149
I01
tp1150
F0.010281562140981356
s((F14.0
F7.0
F9.0
tp1151
I01
tp1152
F0.0
s((F12.0
F18.0
F10.0
tp1153
g6
tp1154
F-16.259999999999998
s((F6.0
F13.0
F7.0
tp1155
I01
tp1156
F-0.47500000000000003
s((F9.0
F14.0
F10.0
tp1157
g6
tp1158
F-25.628975550000003
s((F20.0
F9.0
F0.0
tp1159
I00
tp1160
F0.5303944638356916
s((F16.0
F10.0
F1.0
tp1161
I00
tp1162
F0.0
s((F13.0
F17.0
F9.0
tp1163
I01
tp1164
F-0.6000000000000001
s((F10.0
F8.0
F10.0
tp1165
I01
tp1166
F13.263474965115453
s((F7.0
F8.0
F10.0
tp1167
I01
tp1168
F8.19356620606745
s((F5.0
F13.0
F1.0
tp1169
g6
tp1170
F-2.5
s((F18.0
F15.0
F10.0
tp1171
I01
tp1172
F0.0
s((F13.0
F10.0
F2.0
tp1173
I00
tp1174
F8.38730885388926
s((F8.0
F17.0
F5.0
tp1175
I01
tp1176
F0.0
s((F1.0
F10.0
F4.0
tp1177
I00
tp1178
F0.0
s((F12.0
F9.0
F7.0
tp1179
I01
tp1180
F0.0
s((F8.0
F14.0
F10.0
tp1181
I00
tp1182
F-4.3674765498350006
s((F13.0
F14.0
F9.0
tp1183
I00
tp1184
F-1.5336600000000002
s((F9.0
F10.0
F6.0
tp1185
I01
tp1186
F13.380883979875748
s((F0.0
F10.0
F3.0
tp1187
I00
tp1188
F0.0
s((F6.0
F11.0
F8.0
tp1189
I01
tp1190
F0.0
s((F11.0
F17.0
F10.0
tp1191
g6
tp1192
F-28.693670500000003
s((F8.0
F10.0
F3.0
tp1193
I00
tp1194
F0.0
s((F19.0
F12.0
F2.0
tp1195
I01
tp1196
F0.0
s((F18.0
F14.0
F10.0
tp1197
I00
tp1198
F0.0
s((F7.0
F18.0
F7.0
tp1199
g6
tp1200
F-6.65
s((F15.0
F16.0
F7.0
tp1201
I01
tp1202
F0.0
s((F20.0
F13.0
F0.0
tp1203
I00
tp1204
F0.0
s((F10.0
F14.0
F9.0
tp1205
I01
tp1206
F-0.5340100000000001
s((F14.0
F8.0
F9.0
tp1207
I00
tp1208
F3.23418952921948e-07
s((F9.0
F14.0
F8.0
tp1209
I01
tp1210
F-0.70422293995
s((F18.0
F10.0
F5.0
tp1211
I00
tp1212
F0.33620524200786306
s((F7.0
F12.0
F10.0
tp1213
I01
tp1214
F-0.06775
s((F6.0
F12.0
F5.0
tp1215
I01
tp1216
F0.0
s((F10.0
F12.0
F9.0
tp1217
I00
tp1218
F-0.1631643198122411
s((F16.0
F7.0
F0.0
tp1219
g6
tp1220
F-32.7608
s((F6.0
F11.0
F7.0
tp1221
I00
tp1222
F0.0
s((F5.0
F9.0
F9.0
tp1223
g6
tp1224
F-4.75
s((F4.0
F10.0
F10.0
tp1225
I01
tp1226
F10.053470009447878
s((F17.0
F8.0
F3.0
tp1227
I00
tp1228
F0.0
s((F16.0
F12.0
F5.0
tp1229
I01
tp1230
F0.0
s((F4.0
F10.0
F9.0
tp1231
I00
tp1232
F0.0
s((F9.0
F14.0
F4.0
tp1233
I00
tp1234
F0.0
s((F9.0
F13.0
F7.0
tp1235
I00
tp1236
F-0.35563196158092786
s((F8.0
F10.0
F9.0
tp1237
I01
tp1238
F8.552391114936997
s((F9.0
F11.0
F8.0
tp1239
I01
tp1240
F10.76973238320198
s((F6.0
F15.0
F7.0
tp1241
I01
tp1242
F-2.1411987775
s((F8.0
F13.0
F9.0
tp1243
I01
tp1244
F-0.006775000000000001
s((F7.0
F12.0
F9.0
tp1245
I00
tp1246
F-0.01961906678422624
s((F17.0
F11.0
F4.0
tp1247
I00
tp1248
F0.3043701609891935
s((F5.0
F10.0
F8.0
tp1249
I00
tp1250
F0.0
s((F19.0
F13.0
F7.0
tp1251
I00
tp1252
F0.0
s((F3.0
F12.0
F7.0
tp1253
I01
tp1254
F0.920569915849701
s((F17.0
F12.0
F3.0
tp1255
I00
tp1256
F0.0031885680728060794
s((F16.0
F12.0
F6.0
tp1257
I00
tp1258
F0.0
s((F12.0
F14.0
F9.0
tp1259
g6
tp1260
F-11.4
s((F7.0
F11.0
F4.0
tp1261
I00
tp1262
F5.070991128573707
s((F8.0
F13.0
F10.0
tp1263
I01
tp1264
F-0.7195359618167928
s((F11.0
F9.0
F3.0
tp1265
I01
tp1266
F13.643125315399697
s((F8.0
F13.0
F10.0
tp1267
g6
tp1268
F-4.0
s((F8.0
F11.0
F6.0
tp1269
I01
tp1270
F13.643047458590832
s((F12.0
F9.0
F6.0
tp1271
I01
tp1272
F2.7536735029540056e-05
s((F19.0
F9.0
F3.0
tp1273
I01
tp1274
F0.17548157620589927
s((F18.0
F9.0
F9.0
tp1275
I01
tp1276
F0.0
s((F18.0
F9.0
F6.0
tp1277
I00
tp1278
F0.4456825474106762
s((F16.0
F11.0
F5.0
tp1279
I01
tp1280
F0.0
s((F11.0
F14.0
F8.0
tp1281
I00
tp1282
F-1.9178218278494998
s((F10.0
F11.0
F10.0
tp1283
I00
tp1284
F4.698534139753709
s((F18.0
F7.0
F10.0
tp1285
I01
tp1286
F0.6340686963578998
s((F18.0
F10.0
F10.0
tp1287
I00
tp1288
F0.0
s((F18.0
F11.0
F4.0
tp1289
I00
tp1290
F0.16664190621306102
s((F11.0
F9.0
F4.0
tp1291
I00
tp1292
F5.675377207409795
s((F17.0
F9.0
F-1.0
tp1293
I00
tp1294
F-5.29208
s((F18.0
F13.0
F6.0
tp1295
I01
tp1296
F0.0
s((F13.0
F19.0
F8.0
tp1297
I00
tp1298
F0.0
s((F13.0
F18.0
F9.0
tp1299
I00
tp1300
F-1.6260000000000003
s((F11.0
F18.0
F6.0
tp1301
I00
tp1302
F0.0
s((F10.0
F10.0
F8.0
tp1303
I01
tp1304
F1.7930126271140223
s((F13.0
F10.0
F10.0
tp1305
I01
tp1306
F-2.445775000000001e-07
s((F17.0
F13.0
F9.0
tp1307
I01
tp1308
F0.0
s((F10.0
F18.0
F9.0
tp1309
I00
tp1310
F0.0
s((F17.0
F12.0
F8.0
tp1311
I01
tp1312
F0.0
s((F15.0
F12.0
F8.0
tp1313
I01
tp1314
F0.0
s((F14.0
F11.0
F10.0
tp1315
I00
tp1316
F0.0
s((F18.0
F13.0
F10.0
tp1317
I00
tp1318
F0.0
s((F14.0
F9.0
F4.0
tp1319
I01
tp1320
F5.823550202666391
s((F14.0
F6.0
F10.0
tp1321
I01
tp1322
F1.0741547512969125e-06
s((F9.0
F12.0
F5.0
tp1323
I01
tp1324
F0.0
s((F6.0
F15.0
F6.0
tp1325
I01
tp1326
F-3.1809470195500005
s((F19.0
F9.0
F6.0
tp1327
I00
tp1328
F0.22423438145226807
s((F8.0
F12.0
F8.0
tp1329
I00
tp1330
F-0.1086186850031192
s((F17.0
F9.0
F2.0
tp1331
I01
tp1332
F0.5951946320502157
s((F16.0
F8.0
F5.0
tp1333
I00
tp1334
F0.0
s((F5.0
F15.0
F6.0
tp1335
g6
tp1336
F-4.75
s((F7.0
F13.0
F4.0
tp1337
I01
tp1338
F0.0
s((F16.0
F11.0
F10.0
tp1339
I01
tp1340
F0.0
s((F17.0
F5.0
F-2.0
tp1341
g6
tp1342
F-8.5
s((F14.0
F16.0
F10.0
tp1343
I00
tp1344
F-0.04374000000000001
s((F16.0
F14.0
F8.0
tp1345
I01
tp1346
F0.0
s((F14.0
F18.0
F9.0
tp1347
I01
tp1348
F-0.65
s((F14.0
F11.0
F9.0
tp1349
I01
tp1350
F0.0
s((F6.0
F9.0
F1.0
tp1351
I01
tp1352
F-0.25
s((F18.0
F12.0
F4.0
tp1353
I01
tp1354
F0.0
s((F16.0
F7.0
F1.0
tp1355
g6
tp1356
F-8.0
s((F19.0
F14.0
F5.0
tp1357
I00
tp1358
F0.0
s((F13.0
F9.0
F9.0
tp1359
I00
tp1360
F9.884283332655288e-08
s((F14.0
F9.0
F7.0
tp1361
I00
tp1362
F0.0
s((F13.0
F8.0
F8.0
tp1363
I00
tp1364
F0.0
s((F12.0
F15.0
F6.0
tp1365
I01
tp1366
F0.0
s((F8.0
F7.0
F1.0
tp1367
g6
tp1368
F-4.0
s((F19.0
F10.0
F-1.0
tp1369
I00
tp1370
F1.0279690037650433
s((F11.0
F10.0
F4.0
tp1371
I00
tp1372
F13.642945271905642
s((F17.0
F7.0
F1.0
tp1373
I00
tp1374
F0.0
s((F19.0
F11.0
F5.0
tp1375
I00
tp1376
F6.681704616441803e-07
s((F17.0
F13.0
F10.0
tp1377
I01
tp1378
F0.0
s((F16.0
F10.0
F4.0
tp1379
I00
tp1380
F1.9753827511397077
s((F11.0
F15.0
F9.0
tp1381
I01
tp1382
F0.0
s((F15.0
F14.0
F5.0
tp1383
I00
tp1384
F0.0
s((F13.0
F11.0
F2.0
tp1385
I01
tp1386
F0.0
s((F14.0
F18.0
F10.0
tp1387
I00
tp1388
F-0.65
s((F19.0
F13.0
F3.0
tp1389
I00
tp1390
F0.0
s((F12.0
F12.0
F8.0
tp1391
I00
tp1392
F-0.010748837595133278
s((F11.0
F11.0
F2.0
tp1393
I01
tp1394
F4.471284529582297
s((F17.0
F9.0
F6.0
tp1395
I00
tp1396
F0.5323383250258987
s((F9.0
F12.0
F2.0
tp1397
I01
tp1398
F13.641273744056468
s((F18.0
F11.0
F8.0
tp1399
I00
tp1400
F0.0
s((F18.0
F10.0
F-1.0
tp1401
I00
tp1402
F0.0
s((F19.0
F11.0
F2.0
tp1403
I01
tp1404
F0.0
s((F17.0
F9.0
F5.0
tp1405
I01
tp1406
F0.45197210801516124
s((F16.0
F16.0
F7.0
tp1407
I01
tp1408
F0.0
s((F13.0
F15.0
F6.0
tp1409
I00
tp1410
F0.0
s((F11.0
F7.0
F6.0
tp1411
I00
tp1412
F0.0
s((F4.0
F11.0
F1.0
tp1413
I00
tp1414
F0.0
s((F7.0
F9.0
F1.0
tp1415
I00
tp1416
F0.0
s((F20.0
F11.0
F6.0
tp1417
I01
tp1418
F0.0
s((F9.0
F8.0
F9.0
tp1419
I01
tp1420
F0.0
s((F16.0
F13.0
F8.0
tp1421
I01
tp1422
F0.0
s((F18.0
F14.0
F5.0
tp1423
I00
tp1424
F0.0
s((F14.0
F10.0
F7.0
tp1425
I01
tp1426
F0.0
s((F9.0
F13.0
F3.0
tp1427
I00
tp1428
F13.643129028083322
s((F20.0
F14.0
F6.0
tp1429
I00
tp1430
F0.0
s((F18.0
F12.0
F7.0
tp1431
I01
tp1432
F0.0
s((F16.0
F15.0
F7.0
tp1433
I01
tp1434
F0.0
s((F17.0
F16.0
F9.0
tp1435
I00
tp1436
F0.0
s((F17.0
F11.0
F1.0
tp1437
I00
tp1438
F0.00016630066037237107
s((F11.0
F19.0
F7.0
tp1439
I00
tp1440
F0.0
s((F11.0
F15.0
F10.0
tp1441
I01
tp1442
F-1.045
s((F10.0
F18.0
F10.0
tp1443
g6
tp1444
F-5.0
s((F15.0
F10.0
F8.0
tp1445
I00
tp1446
F0.0
s((F7.0
F13.0
F5.0
tp1447
I01
tp1448
F0.0
s((F17.0
F14.0
F10.0
tp1449
I01
tp1450
F0.0
s((F20.0
F10.0
F6.0
tp1451
I01
tp1452
F0.0
s((F19.0
F13.0
F9.0
tp1453
I00
tp1454
F0.0
s((F13.0
F13.0
F5.0
tp1455
I00
tp1456
F0.0
s((F6.0
F10.0
F8.0
tp1457
I00
tp1458
F0.0
s((F7.0
F11.0
F8.0
tp1459
I00
tp1460
F0.0
s((F17.0
F12.0
F6.0
tp1461
I00
tp1462
F0.0
s((F8.0
F10.0
F10.0
tp1463
I00
tp1464
F0.0059187684845857895
s((F18.0
F10.0
F6.0
tp1465
I00
tp1466
F0.1419793142138559
s((F2.0
F12.0
F7.0
tp1467
I00
tp1468
F94.99861551613661
s((F17.0
F10.0
F5.0
tp1469
I01
tp1470
F0.0
s((F12.0
F9.0
F8.0
tp1471
I00
tp1472
F0.0
s((F11.0
F13.0
F3.0
tp1473
I00
tp1474
F1.2289369822445626
s((F11.0
F11.0
F5.0
tp1475
I01
tp1476
F0.0
s((F7.0
F13.0
F6.0
tp1477
I00
tp1478
F0.0
s((F17.0
F14.0
F9.0
tp1479
I00
tp1480
F0.0
s((F3.0
F13.0
F10.0
tp1481
I01
tp1482
F-0.6142650000000001
s((F9.0
F16.0
F8.0
tp1483
g6
tp1484
F-4.5
s((F7.0
F18.0
F10.0
tp1485
I01
tp1486
F-0.35000000000000003
s((F18.0
F9.0
F4.0
tp1487
I00
tp1488
F0.6110201137394827
s((F15.0
F7.0
F9.0
tp1489
I00
tp1490
F0.0
s((F18.0
F15.0
F7.0
tp1491
I01
tp1492
F0.0
s((F14.0
F11.0
F5.0
tp1493
I00
tp1494
F0.0
s((F12.0
F14.0
F7.0
tp1495
I01
tp1496
F0.0
s((F7.0
F11.0
F3.0
tp1497
I00
tp1498
F0.17086881898478923
s((F8.0
F17.0
F9.0
tp1499
g6
tp1500
F-7.6
s((F8.0
F18.0
F10.0
tp1501
g6
tp1502
F-13.756
s((F16.0
F9.0
F7.0
tp1503
I00
tp1504
F0.0
s((F7.0
F18.0
F6.0
tp1505
I00
tp1506
F0.0
s((F13.0
F17.0
F6.0
tp1507
I00
tp1508
F0.0
s((F3.0
F11.0
F8.0
tp1509
I00
tp1510
F99.94631487794294
s((F3.0
F13.0
F7.0
tp1511
g6
tp1512
F-1.5
s((F7.0
F15.0
F5.0
tp1513
I00
tp1514
F-0.05585377750000001
s((F14.0
F12.0
F8.0
tp1515
I00
tp1516
F0.0
s((F14.0
F13.0
F9.0
tp1517
I00
tp1518
F0.0
s((F15.0
F12.0
F4.0
tp1519
I01
tp1520
F0.0
s((F12.0
F7.0
F1.0
tp1521
g267
tp1522
F-6.0
s((F11.0
F14.0
F6.0
tp1523
I00
tp1524
F0.0
s((F8.0
F17.0
F8.0
tp1525
I00
tp1526
F0.0
s((F12.0
F15.0
F7.0
tp1527
g6
tp1528
F-16.259999999999998
s((F6.0
F15.0
F8.0
tp1529
I00
tp1530
F-7.684207882936226
s((F19.0
F9.0
F10.0
tp1531
I00
tp1532
F0.0
s((F8.0
F13.0
F2.0
tp1533
I00
tp1534
F13.56907297358362
s((F7.0
F17.0
F9.0
tp1535
I01
tp1536
F-0.0475
s((F12.0
F19.0
F9.0
tp1537
g6
tp1538
F-16.259999999999998
s((F17.0
F10.0
F6.0
tp1539
I01
tp1540
F0.0
s((F8.0
F14.0
F7.0
tp1541
I01
tp1542
F-0.6982357814645547
s((F15.0
F10.0
F7.0
tp1543
I00
tp1544
F0.0
s((F7.0
F18.0
F9.0
tp1545
I01
tp1546
F0.0
s((F17.0
F15.0
F8.0
tp1547
I01
tp1548
F0.0
s((F12.0
F9.0
F1.0
tp1549
g267
tp1550
F-6.0
s((F15.0
F11.0
F9.0
tp1551
I01
tp1552
F0.0
s((F16.0
F10.0
F3.0
tp1553
I00
tp1554
F1.5780217723256826
s((F20.0
F10.0
F7.0
tp1555
I01
tp1556
F0.0
s((F7.0
F13.0
F3.0
tp1557
I00
tp1558
F5.921656667903205
s((F15.0
F12.0
F3.0
tp1559
I00
tp1560
F0.18967364772776174
s((F16.0
F5.0
F2.0
tp1561
I00
tp1562
F0.0
s((F20.0
F12.0
F8.0
tp1563
I00
tp1564
F0.0
s((F16.0
F4.0
F-1.0
tp1565
g6
tp1566
F-21.68
s((F8.0
F10.0
F8.0
tp1567
I01
tp1568
F1.9899942457348583
s((F19.0
F12.0
F9.0
tp1569
I00
tp1570
F0.0
s((F19.0
F15.0
F10.0
tp1571
I00
tp1572
F0.0
s((F6.0
F14.0
F8.0
tp1573
I00
tp1574
F-7.776663396762384
s((F6.0
F13.0
F2.0
tp1575
I00
tp1576
F0.20645544622305817
s((F5.0
F12.0
F8.0
tp1577
I00
tp1578
F0.0
s((F6.0
F12.0
F2.0
tp1579
I00
tp1580
F0.003509777748986206
s((F15.0
F11.0
F5.0
tp1581
I00
tp1582
F0.35590852278440666
s((F7.0
F19.0
F8.0
tp1583
g6
tp1584
F-6.65
s((F16.0
F9.0
F1.0
tp1585
I00
tp1586
F-3.859280000000001
s((F15.0
F12.0
F7.0
tp1587
I01
tp1588
F0.0
s((F13.0
F14.0
F6.0
tp1589
I00
tp1590
F0.0
s((F20.0
F10.0
F4.0
tp1591
I00
tp1592
F0.18088282698027666
s((F19.0
F12.0
F5.0
tp1593
I01
tp1594
F0.0
s((F18.0
F8.0
F5.0
tp1595
I01
tp1596
F0.0
s((F19.0
F7.0
F-1.0
tp1597
I01
tp1598
F1.5663865813231674e-10
s((F20.0
F9.0
F8.0
tp1599
I01
tp1600
F0.04041786633109071
s((F17.0
F13.0
F7.0
tp1601
I00
tp1602
F0.0
s((F20.0
F13.0
F2.0
tp1603
I00
tp1604
F0.0
s((F11.0
F17.0
F8.0
tp1605
I00
tp1606
F-1.4905
s((F15.0
F8.0
F9.0
tp1607
I01
tp1608
F4.6052761401499554e-07
s((F15.0
F11.0
F10.0
tp1609
I01
tp1610
F-0.0009405
s((F5.0
F10.0
F1.0
tp1611
I00
tp1612
F0.0
s((F9.0
F18.0
F10.0
tp1613
g6
tp1614
F-12.195
s((F10.0
F10.0
F7.0
tp1615
I00
tp1616
F11.822666901974234
s((F6.0
F18.0
F10.0
tp1617
I01
tp1618
F-0.47500000000000003
s((F9.0
F14.0
F6.0
tp1619
I00
tp1620
F0.0
s((F19.0
F12.0
F-1.0
tp1621
I01
tp1622
F0.0
s((F0.0
F12.0
F7.0
tp1623
I01
tp1624
F99.99999999999964
s((F4.0
F9.0
F2.0
tp1625
g6
tp1626
F-2.0
s((F13.0
F12.0
F7.0
tp1627
I00
tp1628
F0.0
s((F8.0
F12.0
F7.0
tp1629
I01
tp1630
F0.0
s((F20.0
F11.0
F8.0
tp1631
I00
tp1632
F0.0
s((F11.0
F13.0
F10.0
tp1633
I01
tp1634
F-4.519355000000001
s((F6.0
F16.0
F9.0
tp1635
I01
tp1636
F-0.6775000000000001
s((F4.0
F13.0
F10.0
tp1637
g6
tp1638
F-5.42
s((F6.0
F14.0
F10.0
tp1639
g6
tp1640
F-8.129999999999999
s((F17.0
F15.0
F9.0
tp1641
I01
tp1642
F0.0
s((F12.0
F17.0
F5.0
tp1643
I00
tp1644
F0.0
s((F15.0
F13.0
F9.0
tp1645
I01
tp1646
F0.0
s((F8.0
F11.0
F3.0
tp1647
I00
tp1648
F13.642089818413973
s((F7.0
F14.0
F9.0
tp1649
I01
tp1650
F-2.7453639146565
s((F7.0
F15.0
F3.0
tp1651
I01
tp1652
F0.0
s((F14.0
F15.0
F8.0
tp1653
I01
tp1654
F-0.06337414432614509
s((F6.0
F11.0
F2.0
tp1655
I00
tp1656
F0.0
s((F18.0
F6.0
F10.0
tp1657
I01
tp1658
F0.0
s((F19.0
F12.0
F6.0
tp1659
I01
tp1660
F0.0
s((F14.0
F11.0
F2.0
tp1661
I00
tp1662
F0.17768919180122697
s((F13.0
F15.0
F9.0
tp1663
g6
tp1664
F-12.350000000000001
s((F16.0
F17.0
F8.0
tp1665
I01
tp1666
F0.0
s((F11.0
F9.0
F1.0
tp1667
I01
tp1668
F-0.5
s((F5.0
F13.0
F9.0
tp1669
I01
tp1670
F0.0
s((F10.0
F17.0
F8.0
tp1671
I00
tp1672
F0.0
s((F15.0
F8.0
F10.0
tp1673
I01
tp1674
F6.617033802247377
s((F12.0
F18.0
F8.0
tp1675
g6
tp1676
F-16.259999999999998
s((F9.0
F11.0
F2.0
tp1677
I01
tp1678
F13.64312902808334
s((F11.0
F14.0
F10.0
tp1679
g6
tp1680
F-31.324303450000002
s((F6.0
F11.0
F1.0
tp1681
I01
tp1682
F13.643147968668323
s((F13.0
F11.0
F9.0
tp1683
I00
tp1684
F0.0
s((F20.0
F11.0
F2.0
tp1685
I00
tp1686
F0.14194700987939554
s((F16.0
F12.0
F3.0
tp1687
I00
tp1688
F0.009874984580381047
s((F17.0
F12.0
F5.0
tp1689
I01
tp1690
F0.0
s((F16.0
F7.0
F10.0
tp1691
g6
tp1692
F-15.2
s((F4.0
F13.0
F9.0
tp1693
g6
tp1694
F-5.42
s((F7.0
F13.0
F10.0
tp1695
g6
tp1696
F-3.5
s((F10.0
F14.0
F3.0
tp1697
I00
tp1698
F0.0
s((F11.0
F13.0
F9.0
tp1699
I01
tp1700
F-3.371767280618989
s((F17.0
F11.0
F10.0
tp1701
I01
tp1702
F0.0
s((F13.0
F6.0
F10.0
tp1703
I00
tp1704
F0.0
s((F10.0
F14.0
F7.0
tp1705
g6
tp1706
F-26.085155
s((F18.0
F9.0
F1.0
tp1707
I00
tp1708
F1.0269624147741174
s((F13.0
F12.0
F5.0
tp1709
I01
tp1710
F0.0
s((F13.0
F11.0
F10.0
tp1711
I01
tp1712
F-1.2872500000000004e-07
s((F1.0
F12.0
F10.0
tp1713
I01
tp1714
F97.71351805640637
s((F9.0
F16.0
F5.0
tp1715
I01
tp1716
F0.0
s((F5.0
F12.0
F7.0
tp1717
I00
tp1718
F0.0
s((F3.0
F12.0
F9.0
tp1719
I01
tp1720
F14.764395672131288
s((F10.0
F8.0
F10.0
tp1721
g6
tp1722
F-5.0
s((F9.0
F16.0
F6.0
tp1723
I00
tp1724
F0.0
s((F11.0
F10.0
F5.0
tp1725
I00
tp1726
F13.643129023209871
s((F12.0
F19.0
F8.0
tp1727
g6
tp1728
F-11.4
s((F5.0
F14.0
F7.0
tp1729
g6
tp1730
F-22.264525271712195
s((F7.0
F16.0
F10.0
tp1731
g6
tp1732
F-12.0365
s((F5.0
F14.0
F9.0
tp1733
g6
tp1734
F-21.247634117575025
s((F16.0
F8.0
F8.0
tp1735
I00
tp1736
F0.0
s((F7.0
F9.0
F9.0
tp1737
I00
tp1738
F0.0
s((F14.0
F5.0
F8.0
tp1739
I01
tp1740
F0.0
s((F18.0
F5.0
F-2.0
tp1741
I01
tp1742
F0.0
s((F12.0
F7.0
F5.0
tp1743
I01
tp1744
F0.0
s((F11.0
F14.0
F3.0
tp1745
I00
tp1746
F0.0
s((F12.0
F8.0
F1.0
tp1747
g6
tp1748
F-11.4
s((F15.0
F5.0
F10.0
tp1749
I01
tp1750
F0.0
s((F17.0
F12.0
F2.0
tp1751
I01
tp1752
F0.0
s((F10.0
F14.0
F6.0
tp1753
I01
tp1754
F0.0
s((F8.0
F16.0
F7.0
tp1755
I00
tp1756
F0.0
s((F8.0
F13.0
F7.0
tp1757
I01
tp1758
F-0.814964224496365
s((F10.0
F12.0
F4.0
tp1759
I00
tp1760
F13.643129028083358
s((F7.0
F17.0
F8.0
tp1761
g6
tp1762
F-12.0365
s((F10.0
F13.0
F5.0
tp1763
I00
tp1764
F4.378815472613166
s((F17.0
F11.0
F9.0
tp1765
I01
tp1766
F0.0
s((F17.0
F4.0
F-2.0
tp1767
g6
tp1768
F-8.5
s((F20.0
F11.0
F1.0
tp1769
I00
tp1770
F0.237399204550096
s((F13.0
F12.0
F10.0
tp1771
I01
tp1772
F-0.189145
s((F10.0
F18.0
F6.0
tp1773
I01
tp1774
F0.0
s((F14.0
F17.0
F10.0
tp1775
I00
tp1776
F-0.06000000000000001
s((F12.0
F15.0
F8.0
tp1777
I00
tp1778
F-0.3247695000000001
s((F20.0
F12.0
F6.0
tp1779
I00
tp1780
F0.0
s((F4.0
F12.0
F5.0
tp1781
I00
tp1782
F0.9009828550015446
s((F15.0
F9.0
F10.0
tp1783
I01
tp1784
F3.301898329477299
s((F9.0
F16.0
F10.0
tp1785
I01
tp1786
F-0.0665
s((F16.0
F14.0
F6.0
tp1787
I01
tp1788
F0.0
s((F7.0
F10.0
F3.0
tp1789
I01
tp1790
F0.28454788745263776
s((F16.0
F10.0
F5.0
tp1791
I01
tp1792
F0.0
s((F11.0
F17.0
F7.0
tp1793
I00
tp1794
F0.0
s((F14.0
F9.0
F9.0
tp1795
I00
tp1796
F0.0
s((F1.0
F11.0
F9.0
tp1797
I00
tp1798
F9.460468683344807
s((F19.0
F10.0
F3.0
tp1799
I00
tp1800
F0.46187490405373166
s((F20.0
F10.0
F3.0
tp1801
I00
tp1802
F0.30870054112459255
s((F16.0
F15.0
F8.0
tp1803
I01
tp1804
F0.0
s((F5.0
F13.0
F9.0
tp1805
g6
tp1806
F-13.0425775
s((F13.0
F15.0
F9.0
tp1807
I00
tp1808
F0.0
s((F17.0
F5.0
F1.0
tp1809
I01
tp1810
F0.0
s((F12.0
F14.0
F6.0
tp1811
I01
tp1812
F0.0
s((F6.0
F16.0
F8.0
tp1813
I00
tp1814
F-1.4695
s((F9.0
F15.0
F10.0
tp1815
I00
tp1816
F-0.395
s((F15.0
F5.0
F9.0
tp1817
I01
tp1818
F0.0
s((F4.0
F12.0
F6.0
tp1819
I01
tp1820
F0.0
s((F7.0
F15.0
F10.0
tp1821
g6
tp1822
F-18.259608500000002
s((F16.0
F7.0
F4.0
tp1823
I01
tp1824
F0.0
s((F10.0
F14.0
F5.0
tp1825
I01
tp1826
F0.0
s((F19.0
F11.0
F1.0
tp1827
I00
tp1828
F0.33564620939731815
s((F8.0
F15.0
F7.0
tp1829
I00
tp1830
F-0.16672531318442985
s((F20.0
F9.0
F7.0
tp1831
I01
tp1832
F0.05708176570891786
s((F20.0
F10.0
F0.0
tp1833
I01
tp1834
F1.6360991339802569e-06
s((F-1.0
F12.0
F10.0
tp1835
S's'
p1836
tp1837
F99.99999999999996
s((F13.0
F17.0
F10.0
tp1838
g6
tp1839
F-6.5
s((F19.0
F11.0
F10.0
tp1840
I00
tp1841
F0.0
s((F18.0
F8.0
F1.0
tp1842
I00
tp1843
F3.4418557236528956e-10
s((F11.0
F19.0
F10.0
tp1844
g6
tp1845
F-14.905
s((F13.0
F14.0
F4.0
tp1846
I00
tp1847
F0.0
s((F7.0
F11.0
F10.0
tp1848
I00
tp1849
F-0.0016834914645681358
s((F13.0
F9.0
F10.0
tp1850
I00
tp1851
F9.999875666877708
s((F9.0
F13.0
F10.0
tp1852
g6
tp1853
F-4.5
s((F9.0
F17.0
F7.0
tp1854
I00
tp1855
F0.0
s((F16.0
F6.0
F10.0
tp1856
I00
tp1857
F0.0
s((F13.0
F9.0
F2.0
tp1858
I01
tp1859
F4.325031652319005
s((F17.0
F7.0
F2.0
tp1860
I01
tp1861
F0.0
s((F15.0
F9.0
F9.0
tp1862
I01
tp1863
F0.0
s((F12.0
F17.0
F9.0
tp1864
g6
tp1865
F-11.4
s((F7.0
F11.0
F1.0
tp1866
I01
tp1867
F13.643129028083305
s((F16.0
F9.0
F10.0
tp1868
I01
tp1869
F0.2572551423635162
s((F9.0
F10.0
F5.0
tp1870
I00
tp1871
F0.0
s((F14.0
F12.0
F3.0
tp1872
I00
tp1873
F0.09716948891216512
s((F18.0
F15.0
F10.0
tp1874
I00
tp1875
F0.0
s((F11.0
F7.0
F8.0
tp1876
I01
tp1877
F0.0
s((F18.0
F15.0
F9.0
tp1878
I01
tp1879
F0.0
s((F14.0
F11.0
F7.0
tp1880
I00
tp1881
F0.0
s((F0.0
F13.0
F9.0
tp1882
I01
tp1883
F99.99999999999996
s((F12.0
F14.0
F9.0
tp1884
I01
tp1885
F-0.55
s((F15.0
F15.0
F10.0
tp1886
I01
tp1887
F-0.011400000000000004
s((F11.0
F8.0
F8.0
tp1888
I00
tp1889
F0.0
s((F20.0
F14.0
F0.0
tp1890
I01
tp1891
F0.0
s((F16.0
F14.0
F7.0
tp1892
I01
tp1893
F0.0
s((F18.0
F12.0
F1.0
tp1894
I00
tp1895
F0.25127958036860487
s((F7.0
F11.0
F6.0
tp1896
I00
tp1897
F12.861634231944073
s((F9.0
F13.0
F8.0
tp1898
I00
tp1899
F-0.7514078551192931
s((F16.0
F9.0
F9.0
tp1900
I00
tp1901
F0.0
s((F19.0
F9.0
F-1.0
tp1902
I01
tp1903
F0.29811810191221744
s((F7.0
F7.0
F1.0
tp1904
g6
tp1905
F-3.5
s((F14.0
F15.0
F7.0
tp1906
I01
tp1907
F-0.054049634411024325
s((F10.0
F17.0
F6.0
tp1908
I00
tp1909
F0.0
s((F6.0
F13.0
F7.0
tp1910
I00
tp1911
F-4.802623974862973e-75
s((F7.0
F12.0
F4.0
tp1912
I00
tp1913
F14.6518830844842
s((F7.0
F15.0
F7.0
tp1914
I00
tp1915
F-0.2776274937067278
s((F18.0
F7.0
F-2.0
tp1916
I01
tp1917
F0.0
s((F20.0
F9.0
F0.0
tp1918
I01
tp1919
F0.11208740283371552
s((F12.0
F13.0
F10.0
tp1920
I00
tp1921
F-2.9651347817645326
s((F7.0
F13.0
F3.0
tp1922
I01
tp1923
F0.0
s((F16.0
F10.0
F1.0
tp1924
I01
tp1925
F0.3276026466048649
s((F11.0
F15.0
F5.0
tp1926
I00
tp1927
F0.0
s((F11.0
F14.0
F4.0
tp1928
I00
tp1929
F0.0
s((F12.0
F18.0
F9.0
tp1930
I00
tp1931
F-1.900855
s((F10.0
F8.0
F10.0
tp1932
I00
tp1933
F0.0
s((F11.0
F8.0
F7.0
tp1934
I01
tp1935
F0.0
s((F10.0
F7.0
F1.0
tp1936
g6
tp1937
F-9.5
s((F6.0
F15.0
F10.0
tp1938
I00
tp1939
F-11.675218118172456
s((F13.0
F10.0
F2.0
tp1940
I01
tp1941
F2.485106009129661
s((F6.0
F16.0
F10.0
tp1942
I01
tp1943
F-1.08475
s((F10.0
F7.0
F10.0
tp1944
I01
tp1945
F0.0
s((F10.0
F12.0
F3.0
tp1946
I00
tp1947
F13.643129028083358
s((F3.0
F9.0
F1.0
tp1948
g6
tp1949
F-1.5
s((F2.0
F11.0
F10.0
tp1950
I00
tp1951
F0.0
s((F12.0
F10.0
F7.0
tp1952
I00
tp1953
F13.625369226573172
s((F12.0
F9.0
F7.0
tp1954
I00
tp1955
F0.0
s((F12.0
F13.0
F9.0
tp1956
I01
tp1957
F-1.153417941455
s((F19.0
F13.0
F0.0
tp1958
I01
tp1959
F0.0
s((F11.0
F17.0
F10.0
tp1960
I00
tp1961
F-0.40095000000000003
s((F8.0
F10.0
F3.0
tp1962
I01
tp1963
F3.0877568598717415
s((F10.0
F19.0
F9.0
tp1964
g6
tp1965
F-5.0
s((F18.0
F8.0
F-1.0
tp1966
I01
tp1967
F1.059197073440638
s((F15.0
F16.0
F7.0
tp1968
I00
tp1969
F0.0
s((F14.0
F6.0
F10.0
tp1970
g6
tp1971
F-7.0
s((F20.0
F13.0
F0.0
tp1972
I01
tp1973
F0.0
s((F15.0
F11.0
F7.0
tp1974
I00
tp1975
F0.0
s((F5.0
F13.0
F8.0
tp1976
g6
tp1977
F-6.775
s((F14.0
F8.0
F9.0
tp1978
I01
tp1979
F0.0
s((F13.0
F11.0
F4.0
tp1980
I00
tp1981
F0.44760723028898053
s((F15.0
F13.0
F8.0
tp1982
I01
tp1983
F0.0
s((F18.0
F10.0
F5.0
tp1984
I01
tp1985
F0.0
s((F8.0
F6.0
F4.0
tp1986
I01
tp1987
F0.0
s((F14.0
F17.0
F7.0
tp1988
I01
tp1989
F0.0
s((F13.0
F14.0
F8.0
tp1990
I00
tp1991
F-0.3003672840668074
s((F11.0
F7.0
F7.0
tp1992
I00
tp1993
F0.0
s((F16.0
F8.0
F3.0
tp1994
I00
tp1995
F0.0
s((F10.0
F12.0
F9.0
tp1996
I01
tp1997
F-0.0003488447500000001
s((F17.0
F14.0
F6.0
tp1998
I00
tp1999
F0.0
s((F4.0
F10.0
F10.0
tp2000
I00
tp2001
F0.007699672447331872
s((F10.0
F11.0
F9.0
tp2002
I01
tp2003
F-0.00012872500000000003
s((F8.0
F13.0
F10.0
tp2004
I00
tp2005
F-2.7481496999274673
s((F15.0
F6.0
F9.0
tp2006
I01
tp2007
F0.0
s((F4.0
F10.0
F9.0
tp2008
I01
tp2009
F0.0
s((F9.0
F14.0
F4.0
tp2010
I01
tp2011
F0.0
s((F17.0
F5.0
F-1.0
tp2012
I01
tp2013
F-0.8
s((F9.0
F13.0
F7.0
tp2014
I01
tp2015
F-1.2796020863912287
s((F19.0
F9.0
F0.0
tp2016
I01
tp2017
F0.3323457261918782
s((F19.0
F8.0
F1.0
tp2018
I01
tp2019
F0.4421860730312509
s((F14.0
F14.0
F5.0
tp2020
I00
tp2021
F0.0
s((F9.0
F11.0
F8.0
tp2022
I00
tp2023
F0.6280963838259976
s((F17.0
F10.0
F0.0
tp2024
I00
tp2025
F-6.516800000000002
s((F12.0
F13.0
F7.0
tp2026
g6
tp2027
F-6.0
s((F6.0
F15.0
F7.0
tp2028
I00
tp2029
F-6.452220686433078
s((F8.0
F13.0
F9.0
tp2030
I00
tp2031
F-0.19196135000000003
s((F16.0
F8.0
F4.0
tp2032
I01
tp2033
F0.0
s((F19.0
F13.0
F7.0
tp2034
I01
tp2035
F0.0
s((F10.0
F18.0
F10.0
tp2036
I01
tp2037
F-0.45
s((F4.0
F12.0
F10.0
tp2038
I01
tp2039
F-0.51585
s((F15.0
F15.0
F8.0
tp2040
I00
tp2041
F-0.02648436202693645
s((F0.0
F12.0
F5.0
tp2042
I01
tp2043
F99.99999999999996
s((F8.0
F12.0
F3.0
tp2044
I01
tp2045
F10.51107572294348
s((F7.0
F8.0
F1.0
tp2046
I00
tp2047
F0.0
s((F20.0
F12.0
F1.0
tp2048
I00
tp2049
F7.773318926452574e-06
s((F14.0
F15.0
F5.0
tp2050
I00
tp2051
F0.0
s((F9.0
F10.0
F2.0
tp2052
I00
tp2053
F5.286743821430245
s((F19.0
F10.0
F4.0
tp2054
I00
tp2055
F0.26913078163042925
s((F18.0
F9.0
F9.0
tp2056
I00
tp2057
F0.0
s((F11.0
F12.0
F6.0
tp2058
I00
tp2059
F0.0
s((F16.0
F11.0
F5.0
tp2060
I00
tp2061
F0.02735741161717603
s((F10.0
F11.0
F5.0
tp2062
I00
tp2063
F13.643129028083358
s((F11.0
F14.0
F8.0
tp2064
I01
tp2065
F0.0
s((F10.0
F11.0
F10.0
tp2066
I01
tp2067
F-0.00024457750000000006
s((F17.0
F4.0
F-1.0
tp2068
g6
tp2069
F-8.5
s((F20.0
F12.0
F2.0
tp2070
I01
tp2071
F0.0
s((F15.0
F9.0
F7.0
tp2072
I00
tp2073
F0.0
s((F16.0
F7.0
F3.0
tp2074
I00
tp2075
F0.0
s((F14.0
F6.0
F9.0
tp2076
I01
tp2077
F0.0
s((F11.0
F10.0
F7.0
tp2078
I01
tp2079
F13.642438477470158
s((F6.0
F13.0
F10.0
tp2080
I00
tp2081
F-13.495461246334095
s((F19.0
F10.0
F7.0
tp2082
I01
tp2083
F0.0
s((F11.0
F12.0
F5.0
tp2084
I01
tp2085
F0.0
s((F12.0
F16.0
F9.0
tp2086
g6
tp2087
F-20.634
s((F10.0
F10.0
F3.0
tp2088
I00
tp2089
F11.595597717074476
s((F11.0
F18.0
F6.0
tp2090
I01
tp2091
F0.0
s((F0.0
F12.0
F10.0
tp2092
I01
tp2093
F99.99999999999996
s((F11.0
F6.0
F5.0
tp2094
I01
tp2095
F0.0
s((F10.0
F10.0
F8.0
tp2096
I00
tp2097
F13.40704310785835
s((F10.0
F18.0
F9.0
tp2098
I01
tp2099
F-0.8550000000000001
s((F14.0
F11.0
F10.0
tp2100
I01
tp2101
F-0.010450000000000001
s((F18.0
F13.0
F10.0
tp2102
I01
tp2103
F0.0
s((F6.0
F7.0
F10.0
tp2104
I00
tp2105
F0.0
s((F14.0
F6.0
F10.0
tp2106
I00
tp2107
F0.0
s((F9.0
F12.0
F5.0
tp2108
I00
tp2109
F10.291096059372864
s((F8.0
F15.0
F7.0
tp2110
g6
tp2111
F-4.0
s((F17.0
F9.0
F2.0
tp2112
I00
tp2113
F0.0
s((F12.0
F11.0
F10.0
tp2114
I01
tp2115
F-1.2872500000000003e-06
s((F7.0
F13.0
F4.0
tp2116
I00
tp2117
F0.0
s((F17.0
F16.0
F9.0
tp2118
I01
tp2119
F0.0
s((F18.0
F14.0
F6.0
tp2120
I01
tp2121
F0.0
s((F16.0
F14.0
F8.0
tp2122
I00
tp2123
F0.0
s((F5.0
F12.0
F5.0
tp2124
I00
tp2125
F1.898783660929485
s((F14.0
F11.0
F9.0
tp2126
I00
tp2127
F0.0
s((F6.0
F9.0
F1.0
tp2128
I00
tp2129
F0.0
s((F18.0
F12.0
F4.0
tp2130
I00
tp2131
F0.0
s((F16.0
F16.0
F7.0
tp2132
I00
tp2133
F0.0
s((F18.0
F13.0
F5.0
tp2134
I00
tp2135
F0.0
s((F2.0
F13.0
F10.0
tp2136
I00
tp2137
F-0.05
s((F13.0
F9.0
F9.0
tp2138
I01
tp2139
F0.0
s((F13.0
F8.0
F8.0
tp2140
I01
tp2141
F3.23418952921948e-06
s((F13.0
F13.0
F9.0
tp2142
g6
tp2143
F-6.5
s((F19.0
F10.0
F-1.0
tp2144
I01
tp2145
F0.0245494785643972
s((F11.0
F10.0
F4.0
tp2146
I01
tp2147
F13.643129021924233
s((F10.0
F14.0
F10.0
tp2148
I00
tp2149
F-0.9622748351844992
s((F17.0
F7.0
F1.0
tp2150
I01
tp2151
F0.0
s((F19.0
F11.0
F5.0
tp2152
I01
tp2153
F0.0
s((F17.0
F13.0
F10.0
tp2154
I00
tp2155
F0.0
s((F17.0
F5.0
F0.0
tp2156
I01
tp2157
F0.0
s((F19.0
F13.0
F10.0
tp2158
I01
tp2159
F0.0
s((F0.0
F11.0
F10.0
tp2160
I01
tp2161
F99.99999999999996
s((F3.0
F10.0
F9.0
tp2162
I01
tp2163
F0.0
s((F13.0
F12.0
F7.0
tp2164
I01
tp2165
F0.0
s((F12.0
F12.0
F5.0
tp2166
I00
tp2167
F1.6994997038449748
s((F11.0
F17.0
F9.0
tp2168
g6
tp2169
F-25.770745
s((F6.0
F19.0
F10.0
tp2170
g6
tp2171
F-3.0
s((F11.0
F9.0
F8.0
tp2172
I01
tp2173
F0.0
s((F12.0
F10.0
F8.0
tp2174
I01
tp2175
F0.0
s((F11.0
F11.0
F2.0
tp2176
I00
tp2177
F12.016618138823674
s((F18.0
F11.0
F8.0
tp2178
I01
tp2179
F0.0
s((F19.0
F11.0
F2.0
tp2180
I00
tp2181
F0.19384736289468515
s((F12.0
F11.0
F7.0
tp2182
I00
tp2183
F0.22336727668369952
s((F16.0
F9.0
F7.0
tp2184
I01
tp2185
F0.0
s((F15.0
F9.0
F2.0
tp2186
I01
tp2187
F-0.6630537738100063
s((F15.0
F13.0
F5.0
tp2188
I00
tp2189
F0.0
s((F18.0
F9.0
F7.0
tp2190
I01
tp2191
F0.02273270152529221
s((F18.0
F10.0
F6.0
tp2192
I01
tp2193
F0.0
s((F11.0
F16.0
F10.0
tp2194
g6
tp2195
F-33.691873105
s((F8.0
F15.0
F8.0
tp2196
I01
tp2197
F-0.09241247500000002
s((F12.0
F12.0
F6.0
tp2198
I01
tp2199
F0.0
s((F7.0
F9.0
F1.0
tp2200
I01
tp2201
F0.0
s((F6.0
F18.0
F6.0
tp2202
I00
tp2203
F0.0
s((F9.0
F15.0
F9.0
tp2204
I00
tp2205
F0.0
s((F12.0
F14.0
F4.0
tp2206
I00
tp2207
F0.0
s((F18.0
F14.0
F5.0
tp2208
I01
tp2209
F0.0
s((F19.0
F14.0
F6.0
tp2210
I00
tp2211
F0.0
s((F13.0
F9.0
F1.0
tp2212
g267
tp2213
F-6.5
s((F9.0
F13.0
F3.0
tp2214
I01
tp2215
F0.0
s((F16.0
F15.0
F7.0
tp2216
I00
tp2217
F0.0
s((F19.0
F11.0
F6.0
tp2218
I01
tp2219
F0.0
s((F8.0
F14.0
F6.0
tp2220
I00
tp2221
F0.0
s((F17.0
F8.0
F0.0
tp2222
I01
tp2223
F-0.7944999557129593
s((F10.0
F12.0
F10.0
tp2224
I00
tp2225
F-0.10758911290666404
s((F2.0
F11.0
F5.0
tp2226
I00
tp2227
F0.0
s((F13.0
F16.0
F8.0
tp2228
I00
tp2229
F0.0
s((F13.0
F15.0
F7.0
tp2230
I00
tp2231
F-0.5474210765749629
s((F20.0
F10.0
F6.0
tp2232
I00
tp2233
F0.12916651255667894
s((F19.0
F13.0
F9.0
tp2234
I01
tp2235
F0.0
s((F7.0
F9.0
F2.0
tp2236
I00
tp2237
F0.0
s((F7.0
F14.0
F9.0
tp2238
g6
tp2239
F-18.259608500000002
s((F3.0
F10.0
F10.0
tp2240
I00
tp2241
F0.1522096774757148
s((F19.0
F14.0
F9.0
tp2242
I01
tp2243
F0.0
s((F20.0
F13.0
F4.0
tp2244
I00
tp2245
F0.0
s((F17.0
F12.0
F6.0
tp2246
I01
tp2247
F0.0
s((F3.0
F11.0
F8.0
tp2248
I01
tp2249
F0.0
s((F7.0
F17.0
F10.0
tp2250
I00
tp2251
F-0.2835000000000001
s((F2.0
F12.0
F7.0
tp2252
I01
tp2253
F99.95594109030566
s((F17.0
F10.0
F5.0
tp2254
I00
tp2255
F0.5931635767566266
s((F5.0
F12.0
F9.0
tp2256
I01
tp2257
F0.0
s((F12.0
F9.0
F8.0
tp2258
I01
tp2259
F4.5670101865885154e-05
s((F10.0
F13.0
F3.0
tp2260
I01
tp2261
F0.0
s((F11.0
F12.0
F10.0
tp2262
I00
tp2263
F-1.2117226518460544
s((F12.0
F16.0
F9.0
tp2264
I00
tp2265
F-0.6005792348186725
s((F12.0
F14.0
F8.0
tp2266
g6
tp2267
F-16.259999999999998
s((F17.0
F9.0
F10.0
tp2268
I01
tp2269
F0.33219489038513295
s((F5.0
F18.0
F7.0
tp2270
g6
tp2271
F-4.75
s((F18.0
F9.0
F4.0
tp2272
I01
tp2273
F0.30432311878664914
s((F16.0
F5.0
F1.0
tp2274
I01
tp2275
F0.0
s((F18.0
F10.0
F4.0
tp2276
I00
tp2277
F0.5222277579035509
s((F8.0
F16.0
F8.0
tp2278
g6
tp2279
F-4.0
s((F5.0
F15.0
F7.0
tp2280
g6
tp2281
F-19.852721697633775
s((F15.0
F7.0
F9.0
tp2282
I01
tp2283
F0.0
s((F18.0
F15.0
F7.0
tp2284
I00
tp2285
F0.0
s((F20.0
F13.0
F3.0
tp2286
I01
tp2287
F0.0
s((F1.0
F12.0
F6.0
tp2288
I00
tp2289
F99.99999999999996
s((F11.0
F16.0
F7.0
tp2290
I01
tp2291
F0.0
s((F7.0
F11.0
F3.0
tp2292
I01
tp2293
F13.643129028083322
s((F16.0
F6.0
F9.0
tp2294
I00
tp2295
F0.0
s((F11.0
F16.0
F4.0
tp2296
I00
tp2297
F0.0
s((F11.0
F13.0
F8.0
tp2298
I01
tp2299
F-5.395036193404957
s((F11.0
F12.0
F9.0
tp2300
I01
tp2301
F-1.9719898574359507
s((F12.0
F17.0
F7.0
tp2302
I00
tp2303
F-3.285252072802795e-97
s((F10.0
F11.0
F2.0
tp2304
I00
tp2305
F13.643111879960813
s((F19.0
F10.0
F10.0
tp2306
I00
tp2307
F0.0
s((F17.0
F13.0
F4.0
tp2308
I01
tp2309
F0.0
s((F20.0
F10.0
F9.0
tp2310
I00
tp2311
F0.0
s((F2.0
F12.0
F8.0
tp2312
I01
tp2313
F3.7145751404439293
s((F11.0
F14.0
F6.0
tp2314
I01
tp2315
F0.0
s((F9.0
F14.0
F7.0
tp2316
I01
tp2317
F0.0
s((F11.0
F8.0
F10.0
tp2318
g267
tp2319
F-10.45
s((F18.0
F12.0
F3.0
tp2320
I00
tp2321
F0.009481915082503154
s((F12.0
F6.0
F10.0
tp2322
I00
tp2323
F0.0
s((F16.0
F3.0
F10.0
tp2324
g6
tp2325
F-8.0
s((F20.0
F14.0
F9.0
tp2326
I00
tp2327
F0.0
s((F16.0
F16.0
F8.0
tp2328
I01
tp2329
F0.0
s((F7.0
F18.0
F9.0
tp2330
I00
tp2331
F0.0
s((F17.0
F15.0
F8.0
tp2332
I00
tp2333
F0.0
s((F16.0
F11.0
F9.0
tp2334
I01
tp2335
F0.0
s((F16.0
F10.0
F3.0
tp2336
I01
tp2337
F0.5295970726557785
s((F6.0
F11.0
F3.0
tp2338
I01
tp2339
F14.216867974736754
s((F16.0
F5.0
F2.0
tp2340
I01
tp2341
F0.0
s((F12.0
F13.0
F4.0
tp2342
I01
tp2343
F0.0
s((F18.0
F8.0
F1.0
tp2344
I01
tp2345
F0.761455589065114
s((F11.0
F14.0
F7.0
tp2346
g6
tp2347
F-25.770745
s((F15.0
F13.0
F10.0
tp2348
I00
tp2349
F0.0
s((F15.0
F12.0
F7.0
tp2350
I00
tp2351
F0.0
s((F11.0
F9.0
F10.0
tp2352
g6
tp2353
F-22.52305
s((F11.0
F18.0
F8.0
tp2354
I00
tp2355
F0.0
s((F4.0
F10.0
F7.0
tp2356
I01
tp2357
F0.0
s((F19.0
F12.0
F5.0
tp2358
I00
tp2359
F0.0
s((F18.0
F7.0
F2.0
tp2360
I00
tp2361
F0.0
s((F19.0
F7.0
F-1.0
tp2362
I00
tp2363
F0.0
s((F20.0
F12.0
F9.0
tp2364
I00
tp2365
F0.0
s((F17.0
F13.0
F7.0
tp2366
I01
tp2367
F0.0
s((F8.0
F12.0
F4.0
tp2368
I01
tp2369
F2.478234693935497
s((F19.0
F12.0
F8.0
tp2370
I00
tp2371
F0.0
s((F20.0
F13.0
F2.0
tp2372
I01
tp2373
F0.0
s((F1.0
F10.0
F10.0
tp2374
I00
tp2375
F0.0
s((F8.0
F11.0
F3.0
tp2376
I01
tp2377
F13.643129028083322
s((F7.0
F17.0
F10.0
tp2378
I01
tp2379
F-0.665
s((F15.0
F8.0
F9.0
tp2380
I00
tp2381
F0.000601415515200876
s((F15.0
F11.0
F10.0
tp2382
I00
tp2383
F0.0
s((F11.0
F16.0
F6.0
tp2384
I00
tp2385
F0.0
s((F12.0
F10.0
F5.0
tp2386
I00
tp2387
F13.643129021538403
s((F9.0
F18.0
F9.0
tp2388
g6
tp2389
F-4.5
s((F10.0
F10.0
F7.0
tp2390
I01
tp2391
F5.262429665251641
s((F18.0
F6.0
F0.0
tp2392
I01
tp2393
F9.163597594040629e-11
s((F18.0
F7.0
F1.0
tp2394
I01
tp2395
F4.94179227818642e-10
s((F6.0
F18.0
F10.0
tp2396
I00
tp2397
F-0.25
s((F9.0
F15.0
F5.0
tp2398
I00
tp2399
F0.0
s((F1.0
F13.0
F7.0
tp2400
I00
tp2401
F99.99994299195977
s((F16.0
F13.0
F5.0
tp2402
I01
tp2403
F0.0
s((F9.0
F14.0
F6.0
tp2404
I01
tp2405
F0.0
s((F10.0
F16.0
F10.0
tp2406
g6
tp2407
F-5.0
s((F11.0
F17.0
F9.0
tp2408
I00
tp2409
F-2.8765
s((F17.0
F10.0
F2.0
tp2410
I00
tp2411
F1.2315322257394299
s((F8.0
F8.0
F10.0
tp2412
g6
tp2413
F-4.0
s((F11.0
F13.0
F10.0
tp2414
I00
tp2415
F-3.121102918194719
s((F15.0
F14.0
F9.0
tp2416
I01
tp2417
F0.0
s((F12.0
F13.0
F10.0
tp2418
g6
tp2419
F-11.4
s((F13.0
F16.0
F10.0
tp2420
g6
tp2421
F-12.350000000000001
s((F16.0
F12.0
F9.0
tp2422
I00
tp2423
F0.0
s((F7.0
F14.0
F9.0
tp2424
I00
tp2425
F-2.2933393639217345
s((F14.0
F10.0
F9.0
tp2426
I00
tp2427
F0.0
s((F6.0
F11.0
F2.0
tp2428
I01
tp2429
F0.4935696383827476
s((F4.0
F12.0
F8.0
tp2430
I01
tp2431
F0.0
s((F14.0
F15.0
F10.0
tp2432
I00
tp2433
F0.0
s((F15.0
F18.0
F8.0
tp2434
I00
tp2435
F0.0
s((F4.0
F12.0
F3.0
tp2436
I00
tp2437
F0.0
s((F15.0
F9.0
F8.0
tp2438
I01
tp2439
F0.0
s((F17.0
F9.0
F10.0
tp2440
I00
tp2441
F0.0
s((F18.0
F10.0
F3.0
tp2442
I00
tp2443
F0.6131323173487812
s((F10.0
F10.0
F4.0
tp2444
I01
tp2445
F13.643129028083358
s((F9.0
F18.0
F5.0
tp2446
I00
tp2447
F0.0
s((F9.0
F11.0
F2.0
tp2448
I00
tp2449
F4.287274160860774
s((F11.0
F15.0
F10.0
tp2450
g6
tp2451
F-14.905
s((F7.0
F9.0
F10.0
tp2452
I01
tp2453
F14.367091809394124
s((F3.0
F12.0
F6.0
tp2454
I01
tp2455
F1.7128296245160821
s((F20.0
F11.0
F2.0
tp2456
I01
tp2457
F0.0
s((F8.0
F8.0
F1.0
tp2458
g6
tp2459
F-4.0
s((F2.0
F12.0
F8.0
tp2460
I00
tp2461
F99.76870876658063
s((F16.0
F12.0
F3.0
tp2462
I01
tp2463
F0.0
s((F17.0
F12.0
F5.0
tp2464
I00
tp2465
F0.0
s((F16.0
F17.0
F9.0
tp2466
I00
tp2467
F0.0
s((F6.0
F13.0
F8.0
tp2468
I00
tp2469
F-1.08475
s((F11.0
F16.0
F10.0
tp2470
I00
tp2471
F-3.9546100000000006
s((F17.0
F11.0
F10.0
tp2472
I00
tp2473
F0.0
s((F18.0
F12.0
F3.0
tp2474
I01
tp2475
F0.0
s((F13.0
F12.0
F5.0
tp2476
I00
tp2477
F0.0
s((F13.0
F11.0
F10.0
tp2478
I00
tp2479
F0.0
s((F12.0
F15.0
F10.0
tp2480
g6
tp2481
F-16.259999999999998
s((F8.0
F11.0
F4.0
tp2482
I00
tp2483
F9.87008540951184
s((F3.0
F12.0
F4.0
tp2484
I00
tp2485
F3.581678626404449
s((F9.0
F16.0
F5.0
tp2486
I00
tp2487
F-0.0006775000000000002
s((F10.0
F16.0
F9.0
tp2488
I00
tp2489
F0.0
s((F9.0
F16.0
F6.0
tp2490
I01
tp2491
F-0.0008597500000000003
s((F11.0
F16.0
F9.0
tp2492
I01
tp2493
F-1.5796
s((F15.0
F10.0
F8.0
tp2494
I01
tp2495
F0.0
s((F7.0
F13.0
F2.0
tp2496
I00
tp2497
F13.643159719984423
s((F1.0
F13.0
F10.0
tp2498
I01
tp2499
F0.0
s((F18.0
F9.0
F0.0
tp2500
I00
tp2501
F0.0002642075619319093
s((F7.0
F9.0
F9.0
tp2502
I01
tp2503
F0.06311159592680703
s((F13.0
F15.0
F10.0
tp2504
I01
tp2505
F-0.308280898
s((F8.0
F10.0
F2.0
tp2506
I01
tp2507
F2.6005731022190357
s((F12.0
F7.0
F5.0
tp2508
I00
tp2509
F0.0
s((F16.0
F15.0
F9.0
tp2510
I00
tp2511
F0.0
s((F8.0
F14.0
F10.0
tp2512
I01
tp2513
F-1.6273590769957238
s((F15.0
F5.0
F10.0
tp2514
I00
tp2515
F0.0
s((F5.0
F12.0
F6.0
tp2516
I00
tp2517
F0.0
s((F10.0
F14.0
F6.0
tp2518
I00
tp2519
F0.0
s((F20.0
F14.0
F9.0
tp2520
I01
tp2521
F0.0
s((F2.0
F13.0
F7.0
tp2522
I00
tp2523
F74.82846225061066
s((F20.0
F13.0
F9.0
tp2524
I01
tp2525
F0.0
s((F6.0
F15.0
F10.0
tp2526
g6
tp2527
F-12.285300000000001
s((F14.0
F13.0
F5.0
tp2528
I00
tp2529
F0.0
s((F14.0
F17.0
F10.0
tp2530
I01
tp2531
F-0.06000000000000001
s((F12.0
F15.0
F8.0
tp2532
I01
tp2533
F0.0
s((F8.0
F13.0
F5.0
tp2534
I00
tp2535
F0.5773193623960436
s((F10.0
F16.0
F9.0
tp2536
g6
tp2537
F-9.5
s((F16.0
F14.0
F6.0
tp2538
I00
tp2539
F0.0
s((F2.0
F12.0
F5.0
tp2540
I00
tp2541
F99.99999999999996
s((F7.0
F10.0
F3.0
tp2542
I00
tp2543
F0.0007269365317685698
s((F5.0
F15.0
F5.0
tp2544
g6
tp2545
F-2.5
s((F13.0
F18.0
F10.0
tp2546
g6
tp2547
F-12.350000000000001
s((F14.0
F14.0
F9.0
tp2548
I01
tp2549
F-0.65
s((F10.0
F12.0
F5.0
tp2550
I00
tp2551
F10.257354860679143
s((F11.0
F17.0
F7.0
tp2552
I01
tp2553
F0.0
s((F13.0
F9.0
F10.0
tp2554
I01
tp2555
F8.290674540567254
s((F5.0
F11.0
F3.0
tp2556
I01
tp2557
F13.643129465845494
s((F7.0
F14.0
F10.0
tp2558
I00
tp2559
F-4.914823538551021
s((F20.0
F10.0
F3.0
tp2560
I01
tp2561
F0.0
s((F13.0
F15.0
F9.0
tp2562
I01
tp2563
F0.0
s((F12.0
F14.0
F6.0
tp2564
I00
tp2565
F0.0
s((F5.0
F13.0
F4.0
tp2566
g6
tp2567
F-14.23831975
s((F10.0
F9.0
F7.0
tp2568
I00
tp2569
F0.0
s((F11.0
F11.0
F8.0
tp2570
I01
tp2571
F-7.331310839275001e-05
s((F9.0
F16.0
F8.0
tp2572
I01
tp2573
F0.0
s((F4.0
F12.0
F6.0
tp2574
I00
tp2575
F5.9116422262579145e-05
s((F8.0
F12.0
F10.0
tp2576
I01
tp2577
F-0.08331232750000003
s((F5.0
F14.0
F5.0
tp2578
g6
tp2579
F-21.96058363523577
s((F1.0
F11.0
F5.0
tp2580
I00
tp2581
F0.0
s((F4.0
F13.0
F7.0
tp2582
g6
tp2583
F-2.0
s((F12.0
F9.0
F10.0
tp2584
g267
tp2585
F-16.259999999999998
s((F9.0
F17.0
F8.0
tp2586
g6
tp2587
F-4.5
s((F19.0
F11.0
F1.0
tp2588
I01
tp2589
F0.0
s((F12.0
F10.0
F6.0
tp2590
I01
tp2591
F0.0
s((F7.0
F15.0
F4.0
tp2592
I01
tp2593
F-0.29396725
s((F20.0
F9.0
F7.0
tp2594
I00
tp2595
F0.19375159890876473
s((F20.0
F10.0
F0.0
tp2596
I00
tp2597
F0.5040960891176839
s((F19.0
F12.0
F1.0
tp2598
I01
tp2599
F0.0
s((F8.0
F15.0
F10.0
tp2600
I01
tp2601
F-1.7405125550000002
s((F11.0
F14.0
F7.0
tp2602
I01
tp2603
F0.0
s((F14.0
F16.0
F7.0
tp2604
I00
tp2605
F0.0
s((F9.0
F17.0
F9.0
tp2606
g6
tp2607
F-12.195
s((F6.0
F15.0
F9.0
tp2608
I01
tp2609
F-4.856909875000001
s((F6.0
F12.0
F10.0
tp2610
I01
tp2611
F-0.85975
s((F13.0
F9.0
F2.0
tp2612
I00
tp2613
F-0.6000000000000001
s((F15.0
F11.0
F6.0
tp2614
I01
tp2615
F0.0
s((F2.0
F11.0
F9.0
tp2616
I01
tp2617
F7.062642605439464e-07
s((F20.0
F9.0
F3.0
tp2618
I01
tp2619
F0.08166665430640352
s((F1.0
F10.0
F3.0
tp2620
I00
tp2621
F0.0
s((F18.0
F11.0
F2.0
tp2622
I00
tp2623
F0.39311251214433707
s((F13.0
F13.0
F10.0
tp2624
I01
tp2625
F-0.6445000000000002
s((F14.0
F12.0
F3.0
tp2626
I01
tp2627
F0.0
s((F10.0
F13.0
F10.0
tp2628
I00
tp2629
F-3.193039596710331
s((F13.0
F16.0
F10.0
tp2630
I00
tp2631
F-1.9802940000000004
s((F17.0
F14.0
F7.0
tp2632
I01
tp2633
F0.0
s((F18.0
F15.0
F9.0
tp2634
I00
tp2635
F0.0
s((F15.0
F15.0
F10.0
tp2636
I00
tp2637
F-0.030894000000000008
s((F4.0
F11.0
F10.0
tp2638
I00
tp2639
F11.727796396240128
s((F11.0
F8.0
F8.0
tp2640
I01
tp2641
F0.0
s((F20.0
F14.0
F0.0
tp2642
I00
tp2643
F0.0
s((F9.0
F12.0
F4.0
tp2644
I00
tp2645
F12.920292194136817
s((F13.0
F7.0
F1.0
tp2646
g267
tp2647
F-12.350000000000001
s((F18.0
F12.0
F1.0
tp2648
I01
tp2649
F0.0
s((F11.0
F17.0
F10.0
tp2650
I01
tp2651
F-1.3955000000000002
s((F18.0
F11.0
F1.0
tp2652
I01
tp2653
F0.0
s((F19.0
F9.0
F-1.0
tp2654
I00
tp2655
F0.5294345680940737
s((F13.0
F14.0
F7.0
tp2656
I01
tp2657
F-0.05449500000000001
s((F14.0
F15.0
F7.0
tp2658
I00
tp2659
F-0.010160106821695662
s((F9.0
F10.0
F4.0
tp2660
I00
tp2661
F0.004579873305093746
s((F10.0
F17.0
F6.0
tp2662
I01
tp2663
F0.0
s((F7.0
F12.0
F4.0
tp2664
I01
tp2665
F2.778749475178767
s((F7.0
F15.0
F7.0
tp2666
I01
tp2667
F-0.47646751772500007
s((F6.0
F11.0
F6.0
tp2668
I00
tp2669
F13.643129028083253
s((F12.0
F13.0
F10.0
tp2670
I01
tp2671
F-1.045
s((F18.0
F16.0
F10.0
tp2672
I01
tp2673
F0.0
s((F13.0
F9.0
F4.0
tp2674
I01
tp2675
F4.91550394939712
s((F11.0
F14.0
F4.0
tp2676
I01
tp2677
F0.0
s((F11.0
F15.0
F10.0
tp2678
I00
tp2679
F-0.34105596350228556
s((F12.0
F18.0
F9.0
tp2680
I01
tp2681
F0.0
s((F13.0
F11.0
F4.0
tp2682
I01
tp2683
F0.0
s((F11.0
F8.0
F7.0
tp2684
I00
tp2685
F0.0
s((F15.0
F7.0
F10.0
tp2686
I00
tp2687
F0.0
s((F9.0
F13.0
F4.0
tp2688
I00
tp2689
F10.511075722943467
s((F6.0
F15.0
F10.0
tp2690
I01
tp2691
F-5.770553214450253
s((F10.0
F15.0
F6.0
tp2692
I00
tp2693
F0.0
s((F6.0
F17.0
F8.0
tp2694
I00
tp2695
F-0.9025000000000001
s((F6.0
F16.0
F10.0
tp2696
I00
tp2697
F-3.361672555
s((F9.0
F13.0
F9.0
tp2698
I00
tp2699
F-0.20347902539573764
s((F10.0
F12.0
F3.0
tp2700
I01
tp2701
F0.0
s((F7.0
F12.0
F8.0
tp2702
I00
tp2703
F-0.05982026764163479
s((F18.0
F13.0
F9.0
tp2704
I01
tp2705
F0.0
s((F2.0
F11.0
F10.0
tp2706
I01
tp2707
F9.998457762166593
s((F17.0
F7.0
F0.0
tp2708
I01
tp2709
F0.0
s((F12.0
F10.0
F7.0
tp2710
I01
tp2711
F0.0
s((F6.0
F13.0
F6.0
tp2712
I00
tp2713
F-3.8699997354547286
s((F8.0
F15.0
F9.0
tp2714
g6
tp2715
F-13.756
s((F11.0
F12.0
F7.0
tp2716
I01
tp2717
F-1.2872500000000003e-05
s((F6.0
F11.0
F5.0
tp2718
I01
tp2719
F11.896744588079276
s((F12.0
F13.0
F9.0
tp2720
I00
tp2721
F-2.164456640748495
s((F16.0
F12.0
F4.0
tp2722
I01
tp2723
F0.0
s((F19.0
F13.0
F0.0
tp2724
I00
tp2725
F0.0
s((F0.0
F12.0
F8.0
tp2726
I01
tp2727
F42.87230638537223
s((F16.0
F12.0
F7.0
tp2728
I00
tp2729
F0.0
s((F5.0
F13.0
F1.0
tp2730
I00
tp2731
F0.13568660082179532
s((F7.0
F11.0
F5.0
tp2732
I00
tp2733
F13.643129028083306
s((F10.0
F16.0
F4.0
tp2734
I01
tp2735
F0.0
s((F8.0
F19.0
F9.0
tp2736
g6
tp2737
F-4.0
s((F3.0
F13.0
F9.0
tp2738
g6
tp2739
F-6.142650000000001
s((F7.0
F12.0
F7.0
tp2740
I01
tp2741
F0.0
s((F9.0
F10.0
F1.0
tp2742
I01
tp2743
F13.64312833639524
s((F15.0
F13.0
F8.0
tp2744
I00
tp2745
F-0.0032799894890943944
s((F19.0
F13.0
F4.0
tp2746
I01
tp2747
F0.0
s((F13.0
F14.0
F8.0
tp2748
I01
tp2749
F0.0
s((F8.0
F12.0
F3.0
tp2750
I00
tp2751
F13.64312902808334
s((F11.0
F7.0
F7.0
tp2752
I01
tp2753
F0.0
s((F16.0
F8.0
F3.0
tp2754
I01
tp2755
F0.0
s((F19.0
F12.0
F7.0
tp2756
I01
tp2757
F0.0
s((F2.0
F13.0
F10.0
tp2758
g6
tp2759
F-1.0
s((F17.0
F14.0
F6.0
tp2760
I01
tp2761
F0.0
s((F9.0
F9.0
F9.0
tp2762
I00
tp2763
F0.10466882781875313
s((F18.0
F8.0
F3.0
tp2764
I00
tp2765
F0.0
s((F5.0
F19.0
F10.0
tp2766
g6
tp2767
F-2.5
s((F10.0
F11.0
F9.0
tp2768
I00
tp2769
F9.181377796049947
s((F8.0
F13.0
F8.0
tp2770
g6
tp2771
F-4.0
s((F16.0
F15.0
F8.0
tp2772
I00
tp2773
F0.0
s((F9.0
F6.0
F5.0
tp2774
I00
tp2775
F0.0
s((F17.0
F5.0
F-1.0
tp2776
I00
tp2777
F-0.8
s((F19.0
F9.0
F0.0
tp2778
I00
tp2779
F0.9372815161072771
s((F8.0
F13.0
F4.0
tp2780
I00
tp2781
F0.0036905453298570643
s((F19.0
F8.0
F1.0
tp2782
I00
tp2783
F0.0
s((F17.0
F11.0
F1.0
tp2784
I01
tp2785
F0.0
s((F17.0
F10.0
F0.0
tp2786
I01
tp2787
F0.42521051693953127
s((F12.0
F9.0
F4.0
tp2788
I00
tp2789
F0.0773225676237484
s((F13.0
F18.0
F8.0
tp2790
I00
tp2791
F0.0
s((F17.0
F8.0
F1.0
tp2792
I01
tp2793
F1.1331956665926621
s((F9.0
F17.0
F7.0
tp2794
g6
tp2795
F-8.55
s((F14.0
F10.0
F2.0
tp2796
I01
tp2797
F1.9314292707964191
s((F10.0
F18.0
F10.0
tp2798
I00
tp2799
F0.0
s((F12.0
F12.0
F3.0
tp2800
I00
tp2801
F7.383590031236051
s((F4.0
F12.0
F10.0
tp2802
I00
tp2803
F0.0
s((F13.0
F10.0
F6.0
tp2804
I00
tp2805
F0.0
s((F20.0
F12.0
F1.0
tp2806
I01
tp2807
F0.0
s((F10.0
F15.0
F8.0
tp2808
g6
tp2809
F-9.5
s((F5.0
F14.0
F10.0
tp2810
g6
tp2811
F-22.538072744540976
s((F6.0
F7.0
F9.0
tp2812
I01
tp2813
F0.0
s((F18.0
F11.0
F-1.0
tp2814
I00
tp2815
F0.0
s((F17.0
F15.0
F7.0
tp2816
I01
tp2817
F0.0
s((F14.0
F9.0
F3.0
tp2818
I01
tp2819
F5.451060048097224
s((F16.0
F8.0
F0.0
tp2820
I01
tp2821
F-1.52
s((F11.0
F13.0
F5.0
tp2822
I00
tp2823
F0.0
s((F9.0
F10.0
F2.0
tp2824
I01
tp2825
F13.64312902808334
s((F19.0
F10.0
F4.0
tp2826
I01
tp2827
F3.292658838807999e-07
s((F11.0
F12.0
F6.0
tp2828
I01
tp2829
F0.0
s((F0.0
F12.0
F9.0
tp2830
I01
tp2831
F99.99999999999996
s((F19.0
F7.0
F1.0
tp2832
I01
tp2833
F0.0
s((F12.0
F11.0
F10.0
tp2834
I00
tp2835
F-6.892056588408393e-06
s((F13.0
F10.0
F5.0
tp2836
I01
tp2837
F0.0
s((F20.0
F12.0
F2.0
tp2838
I00
tp2839
F0.010762288856618157
s((F15.0
F9.0
F7.0
tp2840
I01
tp2841
F0.0
s((F2.0
F10.0
F10.0
tp2842
I01
tp2843
F0.0
s((F6.0
F15.0
F4.0
tp2844
I00
tp2845
F0.0
s((F18.0
F10.0
F1.0
tp2846
I00
tp2847
F0.8903607129240864
s((F20.0
F14.0
F1.0
tp2848
I01
tp2849
F0.0
s((F11.0
F10.0
F7.0
tp2850
I00
tp2851
F13.614016972692522
s((F20.0
F12.0
F9.0
tp2852
I01
tp2853
F0.0
s((F6.0
F13.0
F10.0
tp2854
I01
tp2855
F-3.2091077995000004
s((F19.0
F10.0
F7.0
tp2856
I00
tp2857
F0.04914901182596904
s((F11.0
F12.0
F5.0
tp2858
I00
tp2859
F2.9615950720259314
s((F10.0
F10.0
F3.0
tp2860
I01
tp2861
F13.643129028083358
s((F16.0
F11.0
F4.0
tp2862
I00
tp2863
F0.1853517963333024
s((F15.0
F8.0
F1.0
tp2864
g6
tp2865
F-7.5
s((F12.0
F15.0
F9.0
tp2866
I01
tp2867
F-3.6274303450000005
s((F11.0
F6.0
F5.0
tp2868
I00
tp2869
F0.0
s((F9.0
F16.0
F10.0
tp2870
g6
tp2871
F-8.55
s((F15.0
F14.0
F4.0
tp2872
I00
tp2873
F0.0
s((F10.0
F9.0
F3.0
tp2874
I01
tp2875
F0.0
s((F10.0
F9.0
F10.0
tp2876
I01
tp2877
F13.643129028083358
s((F8.0
F10.0
F9.0
tp2878
I00
tp2879
F0.0
s((F8.0
F18.0
F10.0
tp2880
I01
tp2881
F-0.35000000000000003
s((F8.0
F16.0
F9.0
tp2882
I00
tp2883
F0.0
s((F17.0
F8.0
F10.0
tp2884
I00
tp2885
F0.0
s((F8.0
F15.0
F3.0
tp2886
I00
tp2887
F0.0
s((F9.0
F4.0
F3.0
tp2888
g6
tp2889
F-4.5
s((F16.0
F10.0
F2.0
tp2890
I01
tp2891
F0.32227403143913336
s((F20.0
F11.0
F0.0
tp2892
I01
tp2893
F0.0
s((F16.0
F9.0
F1.0
tp2894
g267
tp2895
F-8.0
s((F15.0
F14.0
F7.0
tp2896
I01
tp2897
F0.0
s((F13.0
F12.0
F4.0
tp2898
I01
tp2899
F0.0
s((F7.0
F17.0
F9.0
tp2900
g6
tp2901
F-9.485
s((F0.0
F13.0
F9.0
tp2902
g6
tp2903
F0.0
s((F18.0
F14.0
F6.0
tp2904
I00
tp2905
F0.0
s((F13.0
F19.0
F10.0
tp2906
g6
tp2907
F-12.350000000000001
s((F20.0
F14.0
F7.0
tp2908
I00
tp2909
F0.0
s((F15.0
F9.0
F1.0
tp2910
g6
tp2911
F-7.5
s((F19.0
F14.0
F10.0
tp2912
I00
tp2913
F0.0
s((F2.0
F13.0
F10.0
tp2914
I01
tp2915
F-0.05
s((F8.0
F16.0
F10.0
tp2916
I01
tp2917
F-0.95075
s((F8.0
F15.0
F8.0
tp2918
I00
tp2919
F-0.025077237775000007
s((F11.0
F18.0
F5.0
tp2920
I00
tp2921
F0.0
s((F3.0
F12.0
F8.0
tp2922
I00
tp2923
F23.232272138164063
s((F10.0
F5.0
F4.0
tp2924
I00
tp2925
F0.0
s((F13.0
F15.0
F8.0
tp2926
I01
tp2927
F-0.05500000000000001
s((F17.0
F5.0
F0.0
tp2928
I00
tp2929
F0.0
s((F4.0
F11.0
F3.0
tp2930
I01
tp2931
F0.010263959823754307
s((F19.0
F13.0
F10.0
tp2932
I00
tp2933
F0.0
s((F16.0
F6.0
F2.0
tp2934
I01
tp2935
F0.0
s((F3.0
F10.0
F9.0
tp2936
I00
tp2937
F0.0
s((F5.0
F14.0
F8.0
tp2938
g6
tp2939
F-16.2830389975
s((F6.0
F10.0
F9.0
tp2940
I00
tp2941
F0.0
s((F12.0
F12.0
F5.0
tp2942
I01
tp2943
F0.0
s((F17.0
F10.0
F7.0
tp2944
I01
tp2945
F0.0
s((F7.0
F11.0
F9.0
tp2946
I00
tp2947
F-0.02212748941329205
s((F2.0
F12.0
F10.0
tp2948
I01
tp2949
F-0.3587530442500406
s((F9.0
F13.0
F7.0
tp2950
g6
tp2951
F-25.628975550000003
s((F20.0
F14.0
F4.0
tp2952
I01
tp2953
F0.0
s((F18.0
F12.0
F5.0
tp2954
I00
tp2955
F0.0
s((F11.0
F9.0
F8.0
tp2956
I00
tp2957
F0.0
s((F16.0
F6.0
F-1.0
tp2958
g6
tp2959
F-27.512
s((F12.0
F10.0
F8.0
tp2960
I00
tp2961
F3.786271477367326
s((F6.0
F16.0
F10.0
tp2962
g6
tp2963
F-5.7
s((F18.0
F13.0
F5.0
tp2964
I01
tp2965
F0.0
s((F12.0
F16.0
F10.0
tp2966
I01
tp2967
F-2.8615073410000003
s((F7.0
F13.0
F7.0
tp2968
I00
tp2969
F-1.9780431552274984
s((F17.0
F14.0
F8.0
tp2970
I00
tp2971
F0.0
s((F1.0
F13.0
F10.0
tp2972
I00
tp2973
F0.0
s((F3.0
F11.0
F3.0
tp2974
I01
tp2975
F0.09181030748041756
s((F18.0
F9.0
F7.0
tp2976
I00
tp2977
F0.3961739877901289
s((F6.0
F10.0
F10.0
tp2978
I01
tp2979
F14.634982745682434
s((F12.0
F12.0
F6.0
tp2980
I00
tp2981
F0.0
s((F14.0
F8.0
F7.0
tp2982
I00
tp2983
F0.0
s((F9.0
F15.0
F9.0
tp2984
I01
tp2985
F-0.36000000000000004
s((F19.0
F14.0
F6.0
tp2986
I01
tp2987
F0.0
s((F7.0
F10.0
F1.0
tp2988
I00
tp2989
F0.0
s((F19.0
F11.0
F6.0
tp2990
I00
tp2991
F0.0
s((F16.0
F9.0
F0.0
tp2992
I01
tp2993
F-2.168
s((F16.0
F9.0
F6.0
tp2994
I00
tp2995
F0.37268853356452225
s((F16.0
F10.0
F9.0
tp2996
I00
tp2997
F0.0
s((F7.0
F13.0
F8.0
tp2998
I01
tp2999
F-1.7029565000000002
s((F15.0
F13.0
F6.0
tp3000
I00
tp3001
F0.0
s((F13.0
F16.0
F8.0
tp3002
I01
tp3003
F-1.6260000000000003
s((F13.0
F15.0
F7.0
tp3004
I01
tp3005
F-0.09969877400000003
s((F14.0
F13.0
F8.0
tp3006
I00
tp3007
F-0.020108352119426732
s((F10.0
F15.0
F10.0
tp3008
g6
tp3009
F-5.0
s((F8.0
F14.0
F9.0
tp3010
g6
tp3011
F-16.3804
s((F10.0
F10.0
F9.0
tp3012
I01
tp3013
F5.212542531635905
s((F13.0
F10.0
F10.0
tp3014
I00
tp3015
F1.055186503322676
s((F6.0
F13.0
F10.0
tp3016
g6
tp3017
F-3.0
s((F12.0
F14.0
F5.0
tp3018
I00
tp3019
F0.0
s((F19.0
F14.0
F9.0
tp3020
I00
tp3021
F0.0
s((F8.0
F18.0
F8.0
tp3022
I00
tp3023
F0.0
s((F6.0
F12.0
F8.0
tp3024
I00
tp3025
F0.0
s((F16.0
F15.0
F6.0
tp3026
I00
tp3027
F0.0
s((F5.0
F12.0
F9.0
tp3028
I00
tp3029
F0.0
s((F16.0
F9.0
F5.0
tp3030
I01
tp3031
F0.6953113629679925
s((F10.0
F13.0
F3.0
tp3032
I00
tp3033
F12.83406313976159
s((F11.0
F12.0
F10.0
tp3034
I01
tp3035
F-0.00011628006779812752
s((F12.0
F16.0
F9.0
tp3036
I01
tp3037
F-4.8964415500000005
s((F19.0
F12.0
F4.0
tp3038
I00
tp3039
F0.0
s((F16.0
F8.0
F1.0
tp3040
g6
tp3041
F-8.0
s((F16.0
F5.0
F1.0
tp3042
I00
tp3043
F0.0
s((F18.0
F7.0
F3.0
tp3044
I01
tp3045
F0.0
s((F8.0
F19.0
F8.0
tp3046
g6
tp3047
F-4.0
s((F13.0
F10.0
F9.0
tp3048
I01
tp3049
F0.0
s((F20.0
F10.0
F9.0
tp3050
I01
tp3051
F0.0
s((F17.0
F12.0
F4.0
tp3052
I00
tp3053
F0.0
s((F12.0
F13.0
F3.0
tp3054
I00
tp3055
F0.0
s((F20.0
F13.0
F3.0
tp3056
I00
tp3057
F0.0
s((F1.0
F12.0
F6.0
tp3058
I01
tp3059
F99.99999999999996
s((F11.0
F16.0
F7.0
tp3060
I00
tp3061
F0.0
s((F15.0
F9.0
F3.0
tp3062
I01
tp3063
F4.81254295480473
s((F16.0
F6.0
F9.0
tp3064
I01
tp3065
F0.0
s((F17.0
F10.0
F4.0
tp3066
I00
tp3067
F0.9742893070890686
s((F5.0
F17.0
F10.0
tp3068
g6
tp3069
F-11.713975
s((F11.0
F13.0
F8.0
tp3070
I00
tp3071
F-0.7677881407945977
s((F13.0
F16.0
F7.0
tp3072
I01
tp3073
F0.0
s((F11.0
F12.0
F9.0
tp3074
I00
tp3075
F-2.6878980009848714
s((F10.0
F13.0
F8.0
tp3076
I00
tp3077
F-1.6113886149795849
s((F19.0
F10.0
F2.0
tp3078
I01
tp3079
F0.13082087916488547
s((F13.0
F14.0
F5.0
tp3080
I00
tp3081
F0.0
s((F20.0
F10.0
F5.0
tp3082
I00
tp3083
F0.13319292503989608
s((F9.0
F18.0
F10.0
tp3084
I00
tp3085
F-0.4
s((F10.0
F11.0
F2.0
tp3086
I01
tp3087
F13.643129028083342
s((F19.0
F10.0
F10.0
tp3088
I01
tp3089
F0.0
s((F17.0
F16.0
F10.0
tp3090
I00
tp3091
F0.0
s((F17.0
F13.0
F4.0
tp3092
I00
tp3093
F0.0
s((F20.0
F13.0
F7.0
tp3094
I01
tp3095
F0.0
s((F7.0
F11.0
F2.0
tp3096
I00
tp3097
F0.0
s((F19.0
F15.0
F8.0
tp3098
I01
tp3099
F0.0
s((F14.0
F11.0
F4.0
tp3100
I01
tp3101
F0.0
s((F9.0
F14.0
F7.0
tp3102
I00
tp3103
F-0.513841562260755
s((F7.0
F11.0
F4.0
tp3104
I01
tp3105
F14.078025177851943
s((F8.0
F11.0
F8.0
tp3106
I01
tp3107
F0.0
s((F6.0
F17.0
F10.0
tp3108
I01
tp3109
F-1.08475
s((F16.0
F16.0
F8.0
tp3110
I00
tp3111
F0.0
s((F14.0
F7.0
F7.0
tp3112
I01
tp3113
F0.0
s((F20.0
F9.0
F9.0
tp3114
I01
tp3115
F0.012280069977875884
s((F16.0
F11.0
F9.0
tp3116
I00
tp3117
F0.0
s((F9.0
F18.0
F9.0
tp3118
I01
tp3119
F-0.4
s((F7.0
F10.0
F2.0
tp3120
I00
tp3121
F0.0
s((F8.0
F14.0
F7.0
tp3122
g6
tp3123
F-18.74236
s((F18.0
F10.0
F9.0
tp3124
I00
tp3125
F0.0
s((F6.0
F11.0
F3.0
tp3126
I00
tp3127
F0.0
s((F18.0
F7.0
F-1.0
tp3128
I00
tp3129
F0.0
s((F18.0
F8.0
F-1.0
tp3130
I00
tp3131
F0.0
s((F18.0
F13.0
F9.0
tp3132
I00
tp3133
F0.0
s((F15.0
F14.0
F10.0
tp3134
I00
tp3135
F-0.08394527940000004
s((F17.0
F10.0
F1.0
tp3136
I01
tp3137
F0.1663065998936585
s((F10.0
F18.0
F7.0
tp3138
g6
tp3139
F-5.0
s((F7.0
F18.0
F7.0
tp3140
I01
tp3141
F0.0
s((F0.0
F13.0
F8.0
tp3142
g6
tp3143
F0.0
s((F19.0
F11.0
F8.0
tp3144
I01
tp3145
F0.0
s((F14.0
F12.0
F5.0
tp3146
I00
tp3147
F0.0
s((F12.0
F18.0
F7.0
tp3148
I00
tp3149
F-1.0869021992164025e-38
s((F16.0
F12.0
F10.0
tp3150
I01
tp3151
F0.0
s((F8.0
F16.0
F7.0
tp3152
g6
tp3153
F-7.6
s((F18.0
F7.0
F2.0
tp3154
I01
tp3155
F0.0
s((F13.0
F11.0
F8.0
tp3156
I00
tp3157
F0.0
s((F0.0
F9.0
F3.0
tp3158
g6
tp3159
F0.0
s((F8.0
F12.0
F4.0
tp3160
I00
tp3161
F14.268309103660977
s((F19.0
F12.0
F8.0
tp3162
I01
tp3163
F0.0
s((F5.0
F7.0
F10.0
tp3164
g6
tp3165
F-2.5
s((F2.0
F13.0
F9.0
tp3166
g6
tp3167
F-1.9
s((F18.0
F11.0
F5.0
tp3168
I01
tp3169
F0.0
s((F7.0
F14.0
F5.0
tp3170
I00
tp3171
F-0.11009884117575024
s((F12.0
F10.0
F5.0
tp3172
I01
tp3173
F0.0
s((F6.0
F11.0
F4.0
tp3174
I00
tp3175
F1.5020852340471653
s((F7.0
F14.0
F7.0
tp3176
g6
tp3177
F-16.399565000000003
s((F18.0
F6.0
F0.0
tp3178
I00
tp3179
F0.0
s((F10.0
F14.0
F10.0
tp3180
g6
tp3181
F-26.085155
s((F18.0
F7.0
F1.0
tp3182
I00
tp3183
F0.0
s((F9.0
F15.0
F5.0
tp3184
I01
tp3185
F0.0
s((F1.0
F13.0
F7.0
tp3186
I01
tp3187
F54.31507012246256
s((F16.0
F13.0
F5.0
tp3188
I00
tp3189
F0.0
s((F18.0
F14.0
F9.0
tp3190
I01
tp3191
F0.0
s((F8.0
F13.0
F6.0
tp3192
I00
tp3193
F0.0
s((F11.0
F17.0
F9.0
tp3194
I01
tp3195
F-1.9360000000000002
s((F17.0
F10.0
F2.0
tp3196
I01
tp3197
F0.25433033500761526
s((F11.0
F16.0
F7.0
tp3198
g6
tp3199
F-28.693670500000003
s((F10.0
F14.0
F4.0
tp3200
I00
tp3201
F0.0
s((F15.0
F8.0
F8.0
tp3202
I00
tp3203
F0.0
s((F16.0
F9.0
F0.0
tp3204
g6
tp3205
F-8.0
s((F13.0
F18.0
F10.0
tp3206
I00
tp3207
F-0.5400000000000001
s((F8.0
F16.0
F5.0
tp3208
I01
tp3209
F-0.01836025
s((F20.0
F9.0
F6.0
tp3210
I00
tp3211
F0.18498692608922918
s((F14.0
F11.0
F4.0
tp3212
I00
tp3213
F0.37259288498288123
s((F5.0
F14.0
F3.0
tp3214
g6
tp3215
F-2.5
s((F16.0
F12.0
F9.0
tp3216
I01
tp3217
F0.0
s((F14.0
F10.0
F9.0
tp3218
I01
tp3219
F0.0
s((F9.0
F15.0
F6.0
tp3220
I00
tp3221
F0.0
s((F4.0
F12.0
F8.0
tp3222
I00
tp3223
F0.5403815176118406
s((F8.0
F11.0
F7.0
tp3224
I01
tp3225
F2.732950990150183
s((F17.0
F8.0
F3.0
tp3226
I01
tp3227
F0.0
s((F5.0
F11.0
F5.0
tp3228
I00
tp3229
F1.0267388943109064
s((F4.0
F12.0
F3.0
tp3230
I01
tp3231
F0.0
s((F8.0
F11.0
F8.0
tp3232
I00
tp3233
F0.0
s((F15.0
F9.0
F8.0
tp3234
I00
tp3235
F0.0
s((F18.0
F10.0
F-2.0
tp3236
I00
tp3237
F0.0
s((F8.0
F13.0
F7.0
tp3238
g6
tp3239
F-16.3804
s((F5.0
F18.0
F6.0
tp3240
g6
tp3241
F-6.775
s((F12.0
F16.0
F7.0
tp3242
I00
tp3243
F-7.09538542993558e-05
s((F18.0
F10.0
F3.0
tp3244
I01
tp3245
F0.19504647880849044
s((F10.0
F10.0
F4.0
tp3246
I00
tp3247
F13.64309721852565
s((F10.0
F15.0
F7.0
tp3248
I00
tp3249
F0.0
s((F16.0
F8.0
F9.0
tp3250
I00
tp3251
F0.0
s((F18.0
F9.0
F3.0
tp3252
I01
tp3253
F0.3069256352535871
s((F7.0
F9.0
F10.0
tp3254
I00
tp3255
F0.0
s((F19.0
F9.0
F4.0
tp3256
I01
tp3257
F0.16936954057873194
s((F11.0
F11.0
F10.0
tp3258
I01
tp3259
F-9.566482017217753e-05
s((F5.0
F11.0
F6.0
tp3260
I01
tp3261
F0.0
s((F4.0
F12.0
F4.0
tp3262
I00
tp3263
F0.20101005299548125
s((F8.0
F18.0
F8.0
tp3264
g6
tp3265
F-7.6
s((F7.0
F16.0
F10.0
tp3266
I00
tp3267
F-0.44942524225000013
s((F10.0
F13.0
F4.0
tp3268
I00
tp3269
F13.643129028083358
s((F11.0
F16.0
F10.0
tp3270
I01
tp3271
F-3.1798405
s((F2.0
F11.0
F6.0
tp3272
I00
tp3273
F0.0
s((F10.0
F10.0
F1.0
tp3274
I01
tp3275
F1.364312902808334
s((F16.0
F8.0
F10.0
tp3276
I01
tp3277
F1.7667352818278776
s((F14.0
F5.0
F10.0
tp3278
I00
tp3279
F0.0
s((F20.0
F11.0
F0.0
tp3280
I00
tp3281
F0.15839247874700366
s((F9.0
F14.0
F9.0
tp3282
g6
tp3283
F-25.628975550000003
s((F8.0
F9.0
F10.0
tp3284
I00
tp3285
F0.0
s((F6.0
F17.0
F10.0
tp3286
I00
tp3287
F-3.1043027500000004
s((F8.0
F11.0
F4.0
tp3288
I01
tp3289
F13.963236783062978
s((F0.0
F13.0
F6.0
tp3290
I01
tp3291
F99.99989866104494
s((F20.0
F12.0
F7.0
tp3292
I00
tp3293
F0.0
s((F10.0
F16.0
F9.0
tp3294
I01
tp3295
F0.0
s((F11.0
F9.0
F7.0
tp3296
I00
tp3297
F0.0
s((F10.0
F13.0
F7.0
tp3298
I01
tp3299
F-0.824414948265217
s((F11.0
F16.0
F9.0
tp3300
I00
tp3301
F0.0
s((F9.0
F11.0
F5.0
tp3302
I00
tp3303
F3.8134331522428515
s((F1.0
F11.0
F10.0
tp3304
I00
tp3305
F99.99999999999996
s((F16.0
F11.0
F2.0
tp3306
I00
tp3307
F0.8089725523951121
s((F19.0
F10.0
F2.0
tp3308
I00
tp3309
F0.593633633009574
s((F19.0
F13.0
F1.0
tp3310
I00
tp3311
F0.0
s((F18.0
F9.0
F0.0
tp3312
I01
tp3313
F0.4156877056439056
s((F16.0
F4.0
F10.0
tp3314
I01
tp3315
F0.0
s((F13.0
F15.0
F10.0
tp3316
I00
tp3317
F-1.8979283200934676
s((F9.0
F14.0
F8.0
tp3318
g6
tp3319
F-18.427950000000003
s((F8.0
F10.0
F2.0
tp3320
I00
tp3321
F0.0
s((F7.0
F10.0
F9.0
tp3322
I00
tp3323
F0.0
s((F18.0
F14.0
F9.0
tp3324
I00
tp3325
F0.0
s((F1.0
F11.0
F6.0
tp3326
I01
tp3327
F0.0
s((F17.0
F8.0
F2.0
tp3328
I01
tp3329
F0.0
s((F12.0
F9.0
F5.0
tp3330
I01
tp3331
F13.269307006248821
s((F15.0
F9.0
F1.0
tp3332
I00
tp3333
F-1.9600000000000002
s((F10.0
F16.0
F10.0
tp3334
I01
tp3335
F-0.8550000000000001
s((F17.0
F4.0
F-1.0
tp3336
I01
tp3337
F0.0
s((F9.0
F17.0
F4.0
tp3338
I00
tp3339
F0.0
s((F6.0
F15.0
F7.0
tp3340
g6
tp3341
F-3.0
s((F11.0
F10.0
F8.0
tp3342
I00
tp3343
F0.7290719872873677
s((F14.0
F14.0
F7.0
tp3344
I01
tp3345
F-0.014796861800000005
s((F6.0
F17.0
F5.0
tp3346
I00
tp3347
F0.0
s((F2.0
F12.0
F5.0
tp3348
I01
tp3349
F95.66806966400037
s((F14.0
F14.0
F10.0
tp3350
I01
tp3351
F-0.06000000000000001
s((F10.0
F12.0
F5.0
tp3352
I01
tp3353
F0.0
s((F18.0
F8.0
F2.0
tp3354
I01
tp3355
F1.3797447160828855e-08
s((F3.0
F10.0
F3.0
tp3356
I01
tp3357
F0.0
s((F2.0
F10.0
F3.0
tp3358
I01
tp3359
F0.0
s((F7.0
F14.0
F8.0
tp3360
g6
tp3361
F-16.399565000000003
s((F10.0
F10.0
F10.0
tp3362
I01
tp3363
F13.643129028083358
s((F7.0
F14.0
F10.0
tp3364
I01
tp3365
F-2.8329463255070295
s((F1.0
F12.0
F5.0
tp3366
I00
tp3367
F99.99999999999996
s((F18.0
F6.0
F-1.0
tp3368
I01
tp3369
F0.0
s((F8.0
F17.0
F8.0
tp3370
g6
tp3371
F-4.0
s((F16.0
F4.0
F9.0
tp3372
I01
tp3373
F0.0
s((F16.0
F6.0
F8.0
tp3374
I01
tp3375
F0.0
s((F11.0
F11.0
F8.0
tp3376
I00
tp3377
F-4.824654187518684e-05
s((F16.0
F7.0
F9.0
tp3378
I01
tp3379
F0.0
s((F9.0
F12.0
F7.0
tp3380
I01
tp3381
F-0.0012872500000000002
s((F18.0
F13.0
F3.0
tp3382
I00
tp3383
F0.0
s((F13.0
F8.0
F7.0
tp3384
I01
tp3385
F0.0
s((F9.0
F12.0
F8.0
tp3386
I00
tp3387
F-0.509780254640222
s((F1.0
F11.0
F5.0
tp3388
I01
tp3389
F99.99999999999996
s((F16.0
F9.0
F8.0
tp3390
I00
tp3391
F0.0
s((F14.0
F7.0
F8.0
tp3392
I00
tp3393
F0.0
s((F9.0
F10.0
F3.0
tp3394
I01
tp3395
F13.64312902808334
s((F12.0
F10.0
F6.0
tp3396
I00
tp3397
F13.643129028083393
s((F7.0
F15.0
F4.0
tp3398
I00
tp3399
F-0.17939261587974997
s((F14.0
F16.0
F8.0
tp3400
I00
tp3401
F0.0
s((F17.0
F5.0
F10.0
tp3402
I01
tp3403
F0.0
s((F19.0
F12.0
F1.0
tp3404
I00
tp3405
F0.0828103821323147
s((F15.0
F16.0
F10.0
tp3406
I00
tp3407
F0.0
s((F11.0
F14.0
F7.0
tp3408
I00
tp3409
F-1.2409803450000003
s((F14.0
F16.0
F7.0
tp3410
I01
tp3411
F0.0
s((F3.0
F12.0
F7.0
tp3412
I00
tp3413
F28.209800436586104
s((F9.0
F18.0
F8.0
tp3414
g6
tp3415
F-8.55
s((F6.0
F12.0
F10.0
tp3416
I00
tp3417
F-0.7000000000000001
s((F12.0
F7.0
F10.0
tp3418
I00
tp3419
F0.0
s((F13.0
F11.0
F2.0
tp3420
I00
tp3421
F3.708858756981287
s((F12.0
F10.0
F2.0
tp3422
I01
tp3423
F12.28380908299065
s((F15.0
F11.0
F6.0
tp3424
I00
tp3425
F0.0
s((F7.0
F15.0
F8.0
tp3426
I01
tp3427
F-0.20610250000000002
s((F14.0
F9.0
F10.0
tp3428
I01
tp3429
F6.954515263577304
s((F3.0
F11.0
F7.0
tp3430
I00
tp3431
F0.015888705161012144
s((F20.0
F9.0
F3.0
tp3432
I00
tp3433
F0.47007462211730955
s((F16.0
F5.0
F0.0
tp3434
g6
tp3435
F-8.0
s((F17.0
F8.0
F0.0
tp3436
I00
tp3437
F-6.516800000000002
s((F18.0
F11.0
F2.0
tp3438
I01
tp3439
F0.0
s((F17.0
F12.0
F8.0
tp3440
I00
tp3441
F0.0
s((F10.0
F13.0
F10.0
tp3442
I01
tp3443
F-3.5705655000000007
s((F15.0
F17.0
F8.0
tp3444
I01
tp3445
F0.0
s((F15.0
F16.0
F9.0
tp3446
I01
tp3447
F0.0
s((F13.0
F16.0
F10.0
tp3448
I01
tp3449
F-1.1305000000000003
s((F17.0
F14.0
F7.0
tp3450
I00
tp3451
F0.0
s((F10.0
F12.0
F10.0
tp3452
I01
tp3453
F-0.00029945500000000007
s((F10.0
F18.0
F8.0
tp3454
I00
tp3455
F0.0
s((F8.0
F15.0
F9.0
tp3456
I00
tp3457
F-0.31500000000000006
s((F4.0
F11.0
F10.0
tp3458
I01
tp3459
F13.64312902808326
s((F9.0
F12.0
F4.0
tp3460
I01
tp3461
F7.770209339694283
s((F5.0
F16.0
F9.0
tp3462
g6
tp3463
F-16.2830389975
s((F5.0
F16.0
F7.0
tp3464
g6
tp3465
F-17.15473509775
s((F18.0
F13.0
F8.0
tp3466
I00
tp3467
F0.0
s((F8.0
F14.0
F8.0
tp3468
I00
tp3469
F-1.850716569863388
s((F13.0
F14.0
F7.0
tp3470
I00
tp3471
F-0.0003699566895807192
s((F9.0
F10.0
F4.0
tp3472
I01
tp3473
F13.64312902808334
s((F11.0
F7.0
F9.0
tp3474
I00
tp3475
F0.0
s((F9.0
F18.0
F7.0
tp3476
I00
tp3477
F0.0
s((F4.0
F11.0
F6.0
tp3478
I00
tp3479
F0.006307983487453772
s((F13.0
F10.0
F7.0
tp3480
I01
tp3481
F0.0
s((F13.0
F12.0
F4.0
tp3482
I00
tp3483
F0.0
s((F5.0
F13.0
F6.0
tp3484
g6
tp3485
F-10.23775
s((F7.0
F16.0
F7.0
tp3486
I00
tp3487
F0.0
s((F9.0
F11.0
F9.0
tp3488
I00
tp3489
F-2.076454706274048e-25
s((F6.0
F17.0
F8.0
tp3490
I01
tp3491
F-0.6775000000000001
s((F9.0
F13.0
F9.0
tp3492
I01
tp3493
F-0.3753841418413025
s((F2.0
F9.0
F1.0
tp3494
g6
tp3495
F-1.0
s((F18.0
F10.0
F7.0
tp3496
I00
tp3497
F0.04905467911515105
s((F7.0
F12.0
F8.0
tp3498
I01
tp3499
F-0.0475
s((F19.0
F8.0
F-1.0
tp3500
I00
tp3501
F0.0
s((F6.0
F11.0
F10.0
tp3502
I00
tp3503
F0.0
s((F17.0
F7.0
F0.0
tp3504
I00
tp3505
F0.0
s((F15.0
F4.0
F1.0
tp3506
g6
tp3507
F-7.5
s((F8.0
F19.0
F10.0
tp3508
g6
tp3509
F-4.0
s((F7.0
F9.0
F2.0
tp3510
I01
tp3511
F0.015487464869855846
s((F-1.0
F9.0
F3.0
tp3512
g1836
tp3513
F10.0
s((F5.0
F18.0
F8.0
tp3514
g6
tp3515
F-2.5
s((F11.0
F12.0
F7.0
tp3516
I00
tp3517
F-2.622541263045195e-06
s((F6.0
F11.0
F5.0
tp3518
I00
tp3519
F0.013488495216356986
s((F16.0
F12.0
F4.0
tp3520
I00
tp3521
F0.0
s((F20.0
F11.0
F9.0
tp3522
I00
tp3523
F0.0
s((F16.0
F12.0
F7.0
tp3524
I01
tp3525
F0.0
s((F15.0
F14.0
F8.0
tp3526
I00
tp3527
F-0.018657705147544324
s((F9.0
F14.0
F10.0
tp3528
I00
tp3529
F-1.4323089500000001
s((F9.0
F13.0
F5.0
tp3530
I00
tp3531
F1.061725968019431
s((F18.0
F6.0
F-2.0
tp3532
I00
tp3533
F0.0
s((F7.0
F11.0
F5.0
tp3534
I01
tp3535
F13.643129028083305
s((F13.0
F7.0
F8.0
tp3536
I00
tp3537
F0.0
s((F9.0
F11.0
F10.0
tp3538
I01
tp3539
F-0.0006775000000000002
s((F10.0
F16.0
F4.0
tp3540
I00
tp3541
F0.0
s((F6.0
F12.0
F7.0
tp3542
I00
tp3543
F0.0
s((F6.0
F16.0
F7.0
tp3544
I00
tp3545
F-4.212209774500001
s((F18.0
F10.0
F0.0
tp3546
I01
tp3547
F0.15560885982532718
s((F7.0
F12.0
F7.0
tp3548
I00
tp3549
F3.3334279513026686e-07
s((F11.0
F13.0
F6.0
tp3550
I01
tp3551
F0.0
s((F9.0
F10.0
F1.0
tp3552
I00
tp3553
F0.0
s((F14.0
F12.0
F7.0
tp3554
I00
tp3555
F0.0
s((F6.0
F11.0
F9.0
tp3556
I01
tp3557
F0.0214881602240006
s((F19.0
F13.0
F-1.0
tp3558
I01
tp3559
F0.0
s((F19.0
F13.0
F4.0
tp3560
I00
tp3561
F0.0
s((F14.0
F10.0
F8.0
tp3562
I01
tp3563
F0.0
s((F5.0
F7.0
F1.0
tp3564
g6
tp3565
F-2.5
s((F17.0
F6.0
F10.0
tp3566
I00
tp3567
F0.0
s((F10.0
F11.0
F4.0
tp3568
I00
tp3569
F13.643129028083358
s((F12.0
F16.0
F10.0
tp3570
g6
tp3571
F-16.259999999999998
s((F14.0
F17.0
F9.0
tp3572
I01
tp3573
F0.0
s((F10.0
F14.0
F8.0
tp3574
I01
tp3575
F0.0
s((F9.0
F14.0
F9.0
tp3576
I01
tp3577
F-2.1347921558482152
s((F9.0
F16.0
F9.0
tp3578
I00
tp3579
F0.0
s((F17.0
F11.0
F2.0
tp3580
I01
tp3581
F0.0
s((F12.0
F8.0
F7.0
tp3582
I00
tp3583
F0.0
s((F1.0
F13.0
F10.0
tp3584
g6
tp3585
F-3.7290670858355
s((F12.0
F9.0
F4.0
tp3586
I01
tp3587
F13.454149674008352
s((F19.0
F7.0
F1.0
tp3588
I00
tp3589
F0.0
s((F17.0
F15.0
F6.0
tp3590
I00
tp3591
F0.0
s((F16.0
F11.0
F7.0
tp3592
I01
tp3593
F0.0
s((F11.0
F14.0
F10.0
tp3594
I00
tp3595
F-1.7328040719317552
s((F15.0
F9.0
F4.0
tp3596
I01
tp3597
F4.941772884870749
s((F10.0
F11.0
F8.0
tp3598
I00
tp3599
F11.43672124620804
s((F14.0
F10.0
F4.0
tp3600
I00
tp3601
F2.7447628226853515
s((F13.0
F11.0
F5.0
tp3602
I00
tp3603
F0.0
s((F12.0
F12.0
F3.0
tp3604
I01
tp3605
F0.0
s((F13.0
F11.0
F8.0
tp3606
I01
tp3607
F0.0
s((F13.0
F10.0
F6.0
tp3608
I01
tp3609
F0.0
s((F19.0
F9.0
F1.0
tp3610
I00
tp3611
F0.847676476713039
s((F18.0
F11.0
F-1.0
tp3612
I01
tp3613
F0.0
s((F17.0
F8.0
F5.0
tp3614
I01
tp3615
F3.011141975480207e-11
s((F17.0
F15.0
F10.0
tp3616
I01
tp3617
F0.0
s((F19.0
F8.0
F10.0
tp3618
I01
tp3619
F0.17301489001813636
s((F11.0
F13.0
F5.0
tp3620
I01
tp3621
F0.0
s((F11.0
F17.0
F7.0
tp3622
g6
tp3623
F-22.52305
s((F-1.0
F11.0
F8.0
tp3624
g1836
tp3625
F10.0
s((F13.0
F11.0
F6.0
tp3626
I01
tp3627
F0.0
s((F17.0
F12.0
F10.0
tp3628
I01
tp3629
F0.0
s((F12.0
F12.0
F4.0
tp3630
I00
tp3631
F10.535902573375704
s((F17.0
F9.0
F0.0
tp3632
I00
tp3633
F0.0
s((F11.0
F9.0
F2.0
tp3634
I01
tp3635
F13.360425749380745
s((F13.0
F10.0
F5.0
tp3636
I00
tp3637
F9.519139306891482
s((F6.0
F14.0
F7.0
tp3638
I00
tp3639
F-13.771989622411738
s((F11.0
F18.0
F10.0
tp3640
g6
tp3641
F-14.905
s((F18.0
F13.0
F4.0
tp3642
I00
tp3643
F0.0
s((F5.0
F17.0
F7.0
tp3644
g6
tp3645
F-8.5975
s((F9.0
F12.0
F8.0
tp3646
I01
tp3647
F-0.18624181854049773
s((F14.0
F9.0
F6.0
tp3648
I01
tp3649
F0.0
s((F6.0
F10.0
F1.0
tp3650
I00
tp3651
F-0.25
s((F17.0
F8.0
F-1.0
tp3652
I00
tp3653
F-0.8
s((F12.0
F16.0
F5.0
tp3654
I00
tp3655
F0.0
s((F18.0
F10.0
F1.0
tp3656
I01
tp3657
F0.06743395582836066
s((F8.0
F14.0
F8.0
tp3658
g6
tp3659
F-16.3804
s((F11.0
F7.0
F1.0
tp3660
g267
tp3661
F-14.905
s((F15.0
F12.0
F10.0
tp3662
I00
tp3663
F0.0
s((F15.0
F13.0
F4.0
tp3664
I00
tp3665
F0.0
s((F13.0
F13.0
F8.0
tp3666
g6
tp3667
F-6.5
s((F9.0
F15.0
F3.0
tp3668
I00
tp3669
F0.0
s((F8.0
F9.0
F8.0
tp3670
I01
tp3671
F0.4695260933239603
s((F13.0
F11.0
F3.0
tp3672
I00
tp3673
F9.162583389549138
s((F10.0
F17.0
F10.0
tp3674
g6
tp3675
F-13.55
s((F8.0
F11.0
F9.0
tp3676
I01
tp3677
F0.012437026743680805
s((F18.0
F13.0
F7.0
tp3678
I01
tp3679
F0.0
s((F11.0
F14.0
F5.0
tp3680
I01
tp3681
F0.0
s((F8.0
F18.0
F10.0
tp3682
I00
tp3683
F0.0
s((F13.0
F8.0
F10.0
tp3684
I00
tp3685
F0.0
s((F8.0
F16.0
F9.0
tp3686
I01
tp3687
F-0.665
s((F11.0
F10.0
F6.0
tp3688
I00
tp3689
F13.643129028083377
s((F17.0
F8.0
F10.0
tp3690
I01
tp3691
F0.831966270617268
s((F10.0
F17.0
F5.0
tp3692
I01
tp3693
F0.0
s((F17.0
F7.0
F3.0
tp3694
I00
tp3695
F0.0
s((F11.0
F13.0
F3.0
tp3696
I01
tp3697
F0.0
s((F17.0
F13.0
F8.0
tp3698
I01
tp3699
F0.0
s((F16.0
F10.0
F2.0
tp3700
I00
tp3701
F0.47038936526451747
s((F15.0
F12.0
F9.0
tp3702
I01
tp3703
F0.0
s((F13.0
F16.0
F8.0
tp3704
g6
tp3705
F-6.5
s((F15.0
F14.0
F7.0
tp3706
I00
tp3707
F-0.011338455636166683
s((F20.0
F12.0
F5.0
tp3708
I00
tp3709
F0.0
s((F20.0
F14.0
F7.0
tp3710
I01
tp3711
F0.0
s((F19.0
F14.0
F10.0
tp3712
I01
tp3713
F0.0
s((F13.0
F14.0
F10.0
tp3714
I00
tp3715
F-0.10450000000000001
s((F8.0
F16.0
F10.0
tp3716
I00
tp3717
F-0.8053096251850003
s((F-1.0
F13.0
F10.0
tp3718
g6
tp3719
F3.7290670858355
s((F16.0
F10.0
F6.0
tp3720
I01
tp3721
F0.0
s((F13.0
F15.0
F8.0
tp3722
I00
tp3723
F-0.16945772188860012
s((F14.0
F18.0
F8.0
tp3724
I01
tp3725
F0.0
s((F15.0
F15.0
F5.0
tp3726
I00
tp3727
F0.0
s((F4.0
F11.0
F3.0
tp3728
I00
tp3729
F0.0
s((F6.0
F10.0
F9.0
tp3730
I01
tp3731
F0.0
s((F7.0
F11.0
F9.0
tp3732
I01
tp3733
F0.05918768484585789
s((F2.0
F12.0
F10.0
tp3734
I00
tp3735
F-0.11330163146610778
s((F6.0
F17.0
F7.0
tp3736
I00
tp3737
F-0.7000000000000001
s((F18.0
F12.0
F5.0
tp3738
I01
tp3739
F0.0
s((F11.0
F10.0
F3.0
tp3740
I01
tp3741
F13.643129028082996
s((F17.0
F9.0
F7.0
tp3742
I00
tp3743
F1.3245466140539687e-05
s((F17.0
F11.0
F6.0
tp3744
I00
tp3745
F0.0
s((F11.0
F15.0
F8.0
tp3746
I01
tp3747
F0.0
s((F12.0
F16.0
F10.0
tp3748
I00
tp3749
F-6.940762055482235
s((F15.0
F10.0
F10.0
tp3750
I00
tp3751
F0.0
s((F7.0
F13.0
F7.0
tp3752
I01
tp3753
F-2.2731801164842977
s((F10.0
F13.0
F9.0
tp3754
I01
tp3755
F0.0
s((F12.0
F11.0
F7.0
tp3756
I01
tp3757
F0.0
s((F17.0
F14.0
F8.0
tp3758
I01
tp3759
F0.0
s((F20.0
F11.0
F4.0
tp3760
I00
tp3761
F0.09865944648430063
s((F16.0
F13.0
F10.0
tp3762
I00
tp3763
F0.0
s((F14.0
F10.0
F5.0
tp3764
I00
tp3765
F0.17795969842919687
s((F6.0
F10.0
F10.0
tp3766
I00
tp3767
F0.0
s((F1.0
F13.0
F6.0
tp3768
I01
tp3769
F40.93319440163117
s((F18.0
F12.0
F9.0
tp3770
I00
tp3771
F0.0
s((F14.0
F8.0
F7.0
tp3772
I01
tp3773
F0.0
s((F17.0
F10.0
F3.0
tp3774
I01
tp3775
F0.29874498755220125
s((F13.0
F7.0
F6.0
tp3776
I00
tp3777
F0.0
s((F16.0
F9.0
F6.0
tp3778
I01
tp3779
F0.2691547025404575
s((F16.0
F10.0
F9.0
tp3780
I01
tp3781
F0.0
s((F7.0
F13.0
F8.0
tp3782
I00
tp3783
F-1.6153292487981754
s((F20.0
F11.0
F7.0
tp3784
I01
tp3785
F0.0
s((F8.0
F18.0
F9.0
tp3786
g6
tp3787
F-16.3804
s((F16.0
F12.0
F8.0
tp3788
I01
tp3789
F0.0
s((F16.0
F13.0
F9.0
tp3790
I01
tp3791
F0.0
s((F3.0
F13.0
F9.0
tp3792
I00
tp3793
F-0.13500000000000004
s((F14.0
F13.0
F8.0
tp3794
I01
tp3795
F0.0
s((F15.0
F7.0
F7.0
tp3796
I00
tp3797
F0.0
s((F14.0
F11.0
F3.0
tp3798
I00
tp3799
F1.462269923466882
s((F10.0
F15.0
F5.0
tp3800
I00
tp3801
F0.0
s((F11.0
F11.0
F7.0
tp3802
I00
tp3803
F0.9026902070537985
s((F16.0
F15.0
F6.0
tp3804
I01
tp3805
F0.0
s((F14.0
F7.0
F10.0
tp3806
I00
tp3807
F5.108064347979681e-07
s((F16.0
F9.0
F5.0
tp3808
I00
tp3809
F1.2719616585609592
s((F7.0
F18.0
F8.0
tp3810
I00
tp3811
F0.0
s((F0.0
F10.0
F9.0
tp3812
I00
tp3813
F0.0
s((F14.0
F10.0
F4.0
tp3814
I01
tp3815
F1.1058854188430383
s((F12.0
F18.0
F6.0
tp3816
I01
tp3817
F0.0
s((F15.0
F15.0
F6.0
tp3818
I00
tp3819
F0.0
s((F7.0
F19.0
F10.0
tp3820
g6
tp3821
F-6.65
s((F13.0
F12.0
F3.0
tp3822
I01
tp3823
F0.0
s((F18.0
F7.0
F3.0
tp3824
I00
tp3825
F0.0
s((F13.0
F10.0
F9.0
tp3826
I00
tp3827
F0.0
s((F17.0
F12.0
F4.0
tp3828
I01
tp3829
F0.0
s((F6.0
F9.0
F2.0
tp3830
I00
tp3831
F-1.3075
s((F17.0
F8.0
F-2.0
tp3832
g6
tp3833
F-8.5
s((F12.0
F7.0
F8.0
tp3834
I00
tp3835
F0.0
s((F5.0
F8.0
F0.0
tp3836
g6
tp3837
F-4.75
s((F14.0
F7.0
F1.0
tp3838
g6
tp3839
F-18.97
s((F17.0
F10.0
F4.0
tp3840
I01
tp3841
F5.676461938717444e-10
s((F13.0
F16.0
F7.0
tp3842
I00
tp3843
F0.0
s((F14.0
F12.0
F10.0
tp3844
I01
tp3845
F-0.009405
s((F14.0
F13.0
F7.0
tp3846
I01
tp3847
F0.0
s((F15.0
F12.0
F6.0
tp3848
I00
tp3849
F0.0
s((F10.0
F13.0
F8.0
tp3850
I01
tp3851
F-4.518600550230255
s((F12.0
F11.0
F6.0
tp3852
I00
tp3853
F5.167169453772114
s((F14.0
F12.0
F9.0
tp3854
I00
tp3855
F-0.09774000000000004
s((F20.0
F10.0
F5.0
tp3856
I01
tp3857
F0.0
s((F9.0
F18.0
F10.0
tp3858
I01
tp3859
F-1.084
s((F17.0
F16.0
F10.0
tp3860
I01
tp3861
F0.0
s((F20.0
F13.0
F7.0
tp3862
I00
tp3863
F0.0
s((F19.0
F9.0
F8.0
tp3864
I01
tp3865
F0.0
s((F5.0
F18.0
F10.0
tp3866
g6
tp3867
F-10.23775
s((F19.0
F15.0
F8.0
tp3868
I00
tp3869
F0.0
s((F0.0
F13.0
F7.0
tp3870
I01
tp3871
F99.88183491761427
s((F17.0
F10.0
F8.0
tp3872
I00
tp3873
F0.0
s((F18.0
F10.0
F8.0
tp3874
I01
tp3875
F0.0
s((F5.0
F12.0
F10.0
tp3876
I00
tp3877
F-0.47322000000000003
s((F17.0
F6.0
F2.0
tp3878
I00
tp3879
F0.0
s((F7.0
F18.0
F9.0
tp3880
g6
tp3881
F-9.485
s((F14.0
F7.0
F7.0
tp3882
I00
tp3883
F0.0
s((F9.0
F9.0
F8.0
tp3884
I01
tp3885
F0.0
s((F20.0
F9.0
F9.0
tp3886
I00
tp3887
F0.0
s((F9.0
F18.0
F9.0
tp3888
I00
tp3889
F0.0
s((F4.0
F11.0
F4.0
tp3890
I00
tp3891
F0.5971005848076157
s((F3.0
F10.0
F10.0
tp3892
I01
tp3893
F1.0276678659259697
s((F7.0
F9.0
F10.0
tp3894
g6
tp3895
F-3.5
s((F9.0
F14.0
F3.0
tp3896
I00
tp3897
F2.268775452777086
s((F17.0
F13.0
F5.0
tp3898
I00
tp3899
F0.0
s((F18.0
F7.0
F-1.0
tp3900
I01
tp3901
F2.755047030381974e-10
s((F15.0
F14.0
F10.0
tp3902
I01
tp3903
F-0.006000000000000002
s((F18.0
F8.0
F-2.0
tp3904
I01
tp3905
F1.0766611125347965
s((F5.0
F13.0
F3.0
tp3906
g6
tp3907
F-17.939261587974997
s((F17.0
F10.0
F1.0
tp3908
I00
tp3909
F3.699772535438417e-05
s((F15.0
F11.0
F8.0
tp3910
I01
tp3911
F0.0
s((F7.0
F18.0
F7.0
tp3912
I00
tp3913
F0.0
s((F13.0
F17.0
F10.0
tp3914
I01
tp3915
F-0.6000000000000001
s((F5.0
F10.0
F7.0
tp3916
I00
tp3917
F0.0
s((F20.0
F9.0
F5.0
tp3918
I01
tp3919
F0.08211950190975313
s((F16.0
F16.0
F9.0
tp3920
I00
tp3921
F0.0
s((F19.0
F11.0
F8.0
tp3922
I00
tp3923
F0.0
s((F18.0
F9.0
F-1.0
tp3924
I01
tp3925
F0.5373428842067638
s((F14.0
F12.0
F5.0
tp3926
I01
tp3927
F0.0
s((F16.0
F12.0
F10.0
tp3928
I00
tp3929
F0.0
s((F9.0
F16.0
F4.0
tp3930
I00
tp3931
F0.0
s((F11.0
F9.0
F5.0
tp3932
I01
tp3933
F13.64312902139934
s((F7.0
F8.0
F2.0
tp3934
I00
tp3935
F0.0
s((F8.0
F15.0
F8.0
tp3936
g6
tp3937
F-4.0
s((F5.0
F10.0
F3.0
tp3938
I01
tp3939
F0.0035520955904906355
s((F11.0
F13.0
F4.0
tp3940
I01
tp3941
F0.0
s((F5.0
F18.0
F9.0
tp3942
g6
tp3943
F-8.5975
s((F18.0
F11.0
F5.0
tp3944
I00
tp3945
F3.7828347142034786e-10
s((F9.0
F11.0
F3.0
tp3946
I00
tp3947
F13.020351773513905
s((F6.0
F14.0
F8.0
tp3948
g6
tp3949
F-8.129999999999999
s((F12.0
F13.0
F9.0
tp3950
g6
tp3951
F-6.0
s((F10.0
F11.0
F6.0
tp3952
I00
tp3953
F13.643129028083358
s((F3.0
F13.0
F6.0
tp3954
I00
tp3955
F54.55613421496497
s((F3.0
F9.0
F0.0
tp3956
g6
tp3957
F-1.5
s((F19.0
F12.0
F4.0
tp3958
I01
tp3959
F0.0
s((F18.0
F10.0
F-1.0
tp3960
I01
tp3961
F0.2045685901427633
s((F8.0
F12.0
F5.0
tp3962
I00
tp3963
F8.645904885925704
s((F18.0
F10.0
F9.0
tp3964
I01
tp3965
F0.0
s((F7.0
F16.0
F9.0
tp3966
I01
tp3967
F-0.06775
s((F9.0
F8.0
F1.0
tp3968
I01
tp3969
F0.231485349800719
s((F8.0
F12.0
F6.0
tp3970
I01
tp3971
F0.0
s((F7.0
F12.0
F2.0
tp3972
I00
tp3973
F13.643289664115878
s((F13.0
F18.0
F10.0
tp3974
I01
tp3975
F-1.6800000000000002
s((F2.0
F11.0
F5.0
tp3976
I01
tp3977
F99.55716021755076
s((F9.0
F11.0
F4.0
tp3978
I01
tp3979
F13.64312902808334
s((F20.0
F9.0
F6.0
tp3980
I01
tp3981
F0.03478227615609268
s((F16.0
F17.0
F10.0
tp3982
I00
tp3983
F0.0
s((F8.0
F9.0
F9.0
tp3984
I01
tp3985
F0.3637548054893922
s((F0.0
F12.0
F6.0
tp3986
I01
tp3987
F99.99999999999996
s((F16.0
F11.0
F8.0
tp3988
I01
tp3989
F0.0
s((F8.0
F11.0
F7.0
tp3990
I00
tp3991
F8.032938150232933
s((F6.0
F16.0
F8.0
tp3992
I01
tp3993
F-1.451275
s((F5.0
F11.0
F5.0
tp3994
I01
tp3995
F13.643129028083253
s((F14.0
F14.0
F8.0
tp3996
I01
tp3997
F-0.05808262138109123
s((F12.0
F16.0
F7.0
tp3998
I01
tp3999
F0.0
s((F19.0
F13.0
F2.0
tp4000
I01
tp4001
F0.0
s((F5.0
F17.0
F6.0
tp4002
g6
tp4003
F-4.75
s((F16.0
F8.0
F9.0
tp4004
I01
tp4005
F0.0
s((F16.0
F17.0
F9.0
tp4006
I01
tp4007
F0.0
s((F18.0
F9.0
F3.0
tp4008
I00
tp4009
F0.2420377722502888
s((F4.0
F11.0
F1.0
tp4010
I01
tp4011
F4.921982140388802
s((F6.0
F14.0
F5.0
tp4012
I00
tp4013
F-12.14065776479353
s((F18.0
F14.0
F10.0
tp4014
I01
tp4015
F0.0
s((F11.0
F11.0
F10.0
tp4016
I00
tp4017
F-7.518705977500004e-05
s((F10.0
F18.0
F9.0
tp4018
g6
tp4019
F-5.0
s((F10.0
F15.0
F10.0
tp4020
I00
tp4021
F-0.03600000000000001
s((F7.0
F16.0
F10.0
tp4022
I01
tp4023
F-0.06775
s((F2.0
F13.0
F6.0
tp4024
I00
tp4025
F99.99999999999996
s((F5.0
F15.0
F8.0
tp4026
g6
tp4027
F-21.622870705817522
s((F14.0
F12.0
F4.0
tp4028
I01
tp4029
F0.0
s((F2.0
F11.0
F6.0
tp4030
I01
tp4031
F1.3048949100046856
s((F16.0
F8.0
F10.0
tp4032
I00
tp4033
F2.521995051156969e-07
s((F19.0
F10.0
F9.0
tp4034
I01
tp4035
F0.0
s((F6.0
F10.0
F1.0
tp4036
I01
tp4037
F12.036178487962156
s((F1.0
F12.0
F8.0
tp4038
I00
tp4039
F96.48656693141851
s((F8.0
F9.0
F10.0
tp4040
I01
tp4041
F13.643129028083322
s((F11.0
F14.0
F5.0
tp4042
I00
tp4043
F0.0
s((F20.0
F12.0
F7.0
tp4044
I01
tp4045
F0.0
s((F12.0
F11.0
F4.0
tp4046
I00
tp4047
F13.643128660664775
s((F10.0
F12.0
F2.0
tp4048
I00
tp4049
F5.443144338914641
s((F15.0
F10.0
F2.0
tp4050
I00
tp4051
F0.9190191935695032
s((F10.0
F13.0
F7.0
tp4052
I00
tp4053
F-1.2320994235607274
s((F7.0
F15.0
F10.0
tp4054
I01
tp4055
F-2.759511454967348
s((F9.0
F11.0
F5.0
tp4056
I01
tp4057
F13.64312902808334
s((F12.0
F11.0
F3.0
tp4058
I00
tp4059
F13.210029606470421
s((F17.0
F4.0
F-1.0
tp4060
I00
tp4061
F0.0
s((F19.0
F13.0
F1.0
tp4062
I01
tp4063
F0.0
s((F14.0
F14.0
F7.0
tp4064
I00
tp4065
F-0.025844964848426886
s((F16.0
F4.0
F10.0
tp4066
I00
tp4067
F0.0
s((F15.0
F7.0
F2.0
tp4068
I01
tp4069
F0.0
s((F12.0
F15.0
F10.0
tp4070
I00
tp4071
F0.0
s((F7.0
F16.0
F8.0
tp4072
g6
tp4073
F-6.65
s((F5.0
F12.0
F1.0
tp4074
I01
tp4075
F0.6851932929340181
s((F4.0
F12.0
F7.0
tp4076
I00
tp4077
F1.396914813349663
s((F6.0
F10.0
F2.0
tp4078
I00
tp4079
F0.0
s((F4.0
F13.0
F10.0
tp4080
I00
tp4081
F0.0
s((F9.0
F16.0
F4.0
tp4082
I01
tp4083
F0.0
s((F8.0
F18.0
F7.0
tp4084
I00
tp4085
F0.0
s((F17.0
F11.0
F7.0
tp4086
I00
tp4087
F0.0
s((F1.0
F12.0
F5.0
tp4088
I01
tp4089
F99.99999999999996
s((F16.0
F10.0
F8.0
tp4090
I01
tp4091
F0.0
s((F15.0
F10.0
F5.0
tp4092
I01
tp4093
F0.0
s((F9.0
F14.0
F7.0
tp4094
g6
tp4095
F-21.085155000000004
s((F13.0
F12.0
F8.0
tp4096
I00
tp4097
F0.0
s((F20.0
F10.0
F1.0
tp4098
I00
tp4099
F0.4399404500933112
s((F17.0
F16.0
F8.0
tp4100
I01
tp4101
F0.0
s((F10.0
F9.0
F9.0
tp4102
I01
tp4103
F0.997111428831913
s((F16.0
F6.0
F1.0
tp4104
I00
tp4105
F0.0
s((F10.0
F16.0
F10.0
tp4106
I00
tp4107
F-1.6245
s((F11.0
F10.0
F8.0
tp4108
I01
tp4109
F9.790305280929015
s((F17.0
F7.0
F-1.0
tp4110
I01
tp4111
F-0.8
s((F12.0
F13.0
F4.0
tp4112
I00
tp4113
F0.0
s((F3.0
F11.0
F4.0
tp4114
I01
tp4115
F4.7468998933100774
s((F14.0
F14.0
F10.0
tp4116
I00
tp4117
F-0.3454366500000001
s((F18.0
F15.0
F8.0
tp4118
I01
tp4119
F0.0
s((F6.0
F13.0
F3.0
tp4120
I00
tp4121
F0.0
s((F18.0
F8.0
F2.0
tp4122
I00
tp4123
F3.1926034280625625e-10
s((F13.0
F13.0
F8.0
tp4124
I00
tp4125
F0.0
s((F10.0
F10.0
F10.0
tp4126
I00
tp4127
F13.643129028083358
s((F6.0
F9.0
F10.0
tp4128
I00
tp4129
F-0.25
s((F13.0
F18.0
F8.0
tp4130
g6
tp4131
F-12.350000000000001
s((F9.0
F17.0
F5.0
tp4132
I00
tp4133
F-0.0012872500000000002
s((F16.0
F6.0
F8.0
tp4134
I00
tp4135
F0.0
s((F16.0
F7.0
F9.0
tp4136
I00
tp4137
F0.0
s((F20.0
F14.0
F1.0
tp4138
I00
tp4139
F0.0
s((F9.0
F12.0
F7.0
tp4140
I00
tp4141
F9.61216805334568
s((F8.0
F13.0
F8.0
tp4142
I01
tp4143
F-0.737545678919691
s((F18.0
F11.0
F3.0
tp4144
I00
tp4145
F0.28211749281702553
s((F7.0
F10.0
F2.0
tp4146
I01
tp4147
F0.035175060452671894
s((F6.0
F17.0
F9.0
tp4148
I00
tp4149
F-0.7000000000000001
s((F6.0
F12.0
F1.0
tp4150
I00
tp4151
F10.843760147515408
s((F16.0
F9.0
F8.0
tp4152
I01
tp4153
F0.0
s((F9.0
F10.0
F3.0
tp4154
I00
tp4155
F5.302693445017438
s((F17.0
F5.0
F10.0
tp4156
I00
tp4157
F3.083138380113938e-09
s((F4.0
F11.0
F9.0
tp4158
I01
tp4159
F0.0
s((F15.0
F16.0
F10.0
tp4160
I01
tp4161
F-0.006000000000000002
s((F5.0
F13.0
F7.0
tp4162
I00
tp4163
F0.0
s((F13.0
F11.0
F9.0
tp4164
I01
tp4165
F0.0
s((F11.0
F11.0
F9.0
tp4166
I00
tp4167
F-7.014532492768576e-05
s((F6.0
F10.0
F3.0
tp4168
I01
tp4169
F0.003083523437882199
s((F12.0
F7.0
F10.0
tp4170
I01
tp4171
F1.1152377686963726e-06
s((F15.0
F11.0
F3.0
tp4172
I00
tp4173
F0.8361734650060204
s((F9.0
F10.0
F7.0
tp4174
I01
tp4175
F12.073397543723589
s((F17.0
F7.0
F-1.0
tp4176
g6
tp4177
F-8.5
s((F12.0
F10.0
F2.0
tp4178
I00
tp4179
F11.641280407350568
s((F7.0
F15.0
F8.0
tp4180
I00
tp4181
F-0.06775000000000002
s((F14.0
F9.0
F2.0
tp4182
I00
tp4183
F-0.65
s((F3.0
F11.0
F7.0
tp4184
I01
tp4185
F0.0
s((F19.0
F12.0
F3.0
tp4186
I01
tp4187
F0.0
s((F12.0
F13.0
F8.0
tp4188
I00
tp4189
F-3.648422782462667
s((F20.0
F11.0
F3.0
tp4190
I01
tp4191
F0.0
s((F15.0
F17.0
F8.0
tp4192
I00
tp4193
F0.0
s((F19.0
F12.0
F0.0
tp4194
I00
tp4195
F0.17591018338002906
s((F15.0
F16.0
F9.0
tp4196
I00
tp4197
F0.0
s((F16.0
F13.0
F7.0
tp4198
I01
tp4199
F0.0
s((F5.0
F12.0
F3.0
tp4200
I00
tp4201
F0.20861919965308567
s((F9.0
F13.0
F10.0
tp4202
I01
tp4203
F-2.225927424981269
s((F6.0
F14.0
F9.0
tp4204
g6
tp4205
F-8.129999999999999
s((F13.0
F8.0
F9.0
tp4206
I01
tp4207
F3.731227596502678e-06
s((F13.0
F9.0
F3.0
tp4208
I01
tp4209
F8.021666869981841
s((F12.0
F9.0
F2.0
tp4210
I00
tp4211
F-4.8050695
s((F19.0
F11.0
F0.0
tp4212
I00
tp4213
F0.39483687888104524
s((F2.0
F11.0
F8.0
tp4214
I00
tp4215
F9.987615989282148
s((F20.0
F9.0
F2.0
tp4216
I00
tp4217
F0.5051203619529118
s((F17.0
F9.0
F-1.0
tp4218
g6
tp4219
F-8.5
s((F20.0
F14.0
F5.0
tp4220
I00
tp4221
F0.0
s((F15.0
F13.0
F10.0
tp4222
I01
tp4223
F-0.006000000000000002
s((F17.0
F6.0
F0.0
tp4224
I01
tp4225
F0.0
s((F12.0
F13.0
F7.0
tp4226
I01
tp4227
F0.0
s((F18.0
F10.0
F7.0
tp4228
I01
tp4229
F0.0
s((F18.0
F6.0
F-2.0
tp4230
I01
tp4231
F0.0
s((F11.0
F7.0
F9.0
tp4232
I01
tp4233
F0.0
s((F17.0
F10.0
F10.0
tp4234
I00
tp4235
F0.0
s((F13.0
F10.0
F7.0
tp4236
I00
tp4237
F0.0
s((F13.0
F17.0
F8.0
tp4238
I00
tp4239
F0.0
s((F19.0
F8.0
F0.0
tp4240
I00
tp4241
F0.0
s((F8.0
F14.0
F4.0
tp4242
I00
tp4243
F0.0
s((F9.0
F11.0
F9.0
tp4244
I01
tp4245
F13.64312902808334
s((F5.0
F13.0
F10.0
tp4246
g6
tp4247
F-17.15473509775
s((F12.0
F10.0
F4.0
tp4248
I00
tp4249
F13.635410771980029
s((F19.0
F8.0
F-1.0
tp4250
I01
tp4251
F0.5421985620340244
s((F7.0
F7.0
F1.0
tp4252
I01
tp4253
F0.0
s((F6.0
F11.0
F10.0
tp4254
I01
tp4255
F13.643129028083287
s((F6.0
F8.0
F2.0
tp4256
I00
tp4257
F0.0
s((F12.0
F17.0
F8.0
tp4258
g6
tp4259
F-16.259999999999998
s((F8.0
F9.0
F2.0
tp4260
I00
tp4261
F0.0
s((F14.0
F15.0
F10.0
tp4262
I01
tp4263
F-0.65
s((F16.0
F6.0
F0.0
tp4264
g6
tp4265
F-8.0
s((F13.0
F10.0
F3.0
tp4266
I01
tp4267
F1.9610151841204275
s((F15.0
F15.0
F9.0
tp4268
I01
tp4269
F-0.011400000000000004
s((F7.0
F16.0
F3.0
tp4270
I00
tp4271
F0.0
s((F17.0
F6.0
F-1.0
tp4272
I00
tp4273
F-2.24
s((F9.0
F14.0
F10.0
tp4274
I01
tp4275
F-2.63316200665701
s((F9.0
F13.0
F5.0
tp4276
I01
tp4277
F0.0
s((F19.0
F9.0
F2.0
tp4278
I01
tp4279
F0.28719674821810254
s((F8.0
F16.0
F9.0
tp4280
g6
tp4281
F-7.6
s((F9.0
F11.0
F10.0
tp4282
I00
tp4283
F0.0
s((F18.0
F11.0
F6.0
tp4284
I00
tp4285
F0.0
s((F18.0
F10.0
F0.0
tp4286
I00
tp4287
F0.0012860159153192854
s((F11.0
F13.0
F6.0
tp4288
I00
tp4289
F0.0
s((F14.0
F12.0
F7.0
tp4290
I01
tp4291
F0.0
s((F6.0
F11.0
F9.0
tp4292
I00
tp4293
F0.0
s((F8.0
F9.0
F1.0
tp4294
I01
tp4295
F11.333055840600899
s((F16.0
F8.0
F-1.0
tp4296
g6
tp4297
F-32.7608
s((F14.0
F10.0
F8.0
tp4298
I00
tp4299
F0.0
s((F17.0
F6.0
F10.0
tp4300
I01
tp4301
F7.455494261087121e-09
s((F10.0
F11.0
F4.0
tp4302
I01
tp4303
F9.361770575247727
s((F14.0
F17.0
F9.0
tp4304
I00
tp4305
F-0.4738500000000001
s((F20.0
F13.0
F1.0
tp4306
I01
tp4307
F0.0
s((F16.0
F13.0
F6.0
tp4308
I01
tp4309
F0.0
s((F20.0
F12.0
F3.0
tp4310
I00
tp4311
F0.020431075305821632
s((F9.0
F14.0
F9.0
tp4312
I00
tp4313
F-1.3108633900372482
s((F10.0
F9.0
F10.0
tp4314
g6
tp4315
F-9.5
s((F-1.0
F13.0
F10.0
tp4316
g1836
tp4317
F99.99999999999996
s((F8.0
F12.0
F10.0
tp4318
I00
tp4319
F-0.016422585313917503
s((F17.0
F11.0
F2.0
tp4320
I00
tp4321
F0.38872575257032926
s((F13.0
F7.0
F9.0
tp4322
I00
tp4323
F0.0
s((F6.0
F12.0
F4.0
tp4324
I00
tp4325
F13.642894366890818
s((F5.0
F10.0
F10.0
tp4326
I00
tp4327
F0.0
s((F18.0
F7.0
F10.0
tp4328
I00
tp4329
F0.0
s((F19.0
F10.0
F6.0
tp4330
I00
tp4331
F0.1217998703081712
s((F11.0
F11.0
F5.0
tp4332
I00
tp4333
F9.964695483238833
s((F11.0
F12.0
F4.0
tp4334
I00
tp4335
F9.416387007917091
s((F17.0
F12.0
F9.0
tp4336
I01
tp4337
F0.0
s((F16.0
F11.0
F7.0
tp4338
I00
tp4339
F0.0
s((F11.0
F14.0
F10.0
tp4340
I01
tp4341
F-4.529624500000001
s((F6.0
F17.0
F9.0
tp4342
I01
tp4343
F-0.47500000000000003
s((F3.0
F12.0
F10.0
tp4344
I01
tp4345
F-0.4065
s((F11.0
F13.0
F10.0
tp4346
g6
tp4347
F-14.905
s((F20.0
F12.0
F4.0
tp4348
I01
tp4349
F0.0
s((F5.0
F7.0
F0.0
tp4350
g6
tp4351
F-2.5
s((F19.0
F9.0
F1.0
tp4352
I01
tp4353
F0.3253340716900065
s((F17.0
F15.0
F10.0
tp4354
I00
tp4355
F0.0
s((F16.0
F4.0
F10.0
tp4356
g6
tp4357
F-8.0
s((F19.0
F10.0
F1.0
tp4358
I01
tp4359
F1.0925666505034867e-05
s((F12.0
F16.0
F8.0
tp4360
I00
tp4361
F0.0
s((F16.0
F4.0
F1.0
tp4362
I01
tp4363
F0.0
s((F3.0
F12.0
F5.0
tp4364
I00
tp4365
F59.74322306163219
s((F14.0
F10.0
F3.0
tp4366
I00
tp4367
F3.9706242350803533
s((F3.0
F12.0
F9.0
tp4368
I00
tp4369
F8.975001567017533e-51
s((F12.0
F15.0
F7.0
tp4370
I01
tp4371
F-1.4905
s((F16.0
F14.0
F9.0
tp4372
I01
tp4373
F0.0
s((F7.0
F10.0
F10.0
tp4374
I00
tp4375
F0.002797057909735753
s((F11.0
F9.0
F2.0
tp4376
I00
tp4377
F-1.045
s((F6.0
F14.0
F7.0
tp4378
I01
tp4379
F-6.592665340694797
s((F18.0
F13.0
F4.0
tp4380
I01
tp4381
F0.0
s((F17.0
F8.0
F-1.0
tp4382
I01
tp4383
F-0.8
s((F12.0
F16.0
F5.0
tp4384
I01
tp4385
F0.0
s((F8.0
F15.0
F5.0
tp4386
I01
tp4387
F0.0
s((F11.0
F14.0
F9.0
tp4388
I01
tp4389
F0.0
s((F20.0
F11.0
F5.0
tp4390
I01
tp4391
F0.0
s((F15.0
F12.0
F10.0
tp4392
I01
tp4393
F-0.006000000000000002
s((F13.0
F12.0
F6.0
tp4394
I00
tp4395
F0.0
s((F7.0
F17.0
F7.0
tp4396
I00
tp4397
F0.0
s((F13.0
F11.0
F3.0
tp4398
I01
tp4399
F0.0
s((F9.0
F12.0
F3.0
tp4400
I01
tp4401
F13.64312902808334
s((F8.0
F11.0
F9.0
tp4402
I00
tp4403
F0.0
s((F18.0
F13.0
F7.0
tp4404
I00
tp4405
F0.0
s((F11.0
F9.0
F9.0
tp4406
I00
tp4407
F1.822135500185603
s((F17.0
F9.0
F4.0
tp4408
I01
tp4409
F0.5106588434035195
s((F13.0
F8.0
F10.0
tp4410
I01
tp4411
F3.797190426165181
s((F7.0
F10.0
F5.0
tp4412
I01
tp4413
F0.0
s((F12.0
F10.0
F9.0
tp4414
I00
tp4415
F8.782996876235767
s((F12.0
F11.0
F8.0
tp4416
I00
tp4417
F-2.2742608926401295e-06
s((F18.0
F13.0
F8.0
tp4418
I01
tp4419
F0.0
s((F11.0
F10.0
F6.0
tp4420
I01
tp4421
F13.643129028083376
s((F10.0
F17.0
F5.0
tp4422
I00
tp4423
F0.0
s((F13.0
F6.0
F9.0
tp4424
I01
tp4425
F0.0
s((F17.0
F7.0
F3.0
tp4426
I01
tp4427
F9.057580313691073e-10
s((F6.0
F18.0
F10.0
tp4428
g6
tp4429
F-3.0
s((F7.0
F17.0
F7.0
tp4430
I01
tp4431
F0.0
s((F17.0
F13.0
F8.0
tp4432
I00
tp4433
F0.0
s((F15.0
F12.0
F9.0
tp4434
I00
tp4435
F0.0
s((F16.0
F14.0
F10.0
tp4436
I01
tp4437
F-0.0006000000000000003
s((F0.0
F11.0
F4.0
tp4438
I01
tp4439
F0.0
s((F16.0
F10.0
F5.0
tp4440
I00
tp4441
F1.5289154897793908
s((F15.0
F6.0
F10.0
tp4442
I00
tp4443
F0.0
s((F18.0
F12.0
F6.0
tp4444
I01
tp4445
F0.0
s((F8.0
F12.0
F2.0
tp4446
I01
tp4447
F13.643129028083306
s((F15.0
F9.0
F10.0
tp4448
g6
tp4449
F-7.5
s((F14.0
F9.0
F5.0
tp4450
I00
tp4451
F0.01649190824757325
s((F11.0
F12.0
F3.0
tp4452
I00
tp4453
F12.797887244947713
s((F6.0
F14.0
F2.0
tp4454
I00
tp4455
F0.12401998602105727
s((F19.0
F11.0
F7.0
tp4456
I00
tp4457
F0.0
s((F19.0
F10.0
F0.0
tp4458
I01
tp4459
F1.499592355450261e-05
s((F13.0
F16.0
F5.0
tp4460
I00
tp4461
F0.0
s((F13.0
F14.0
F10.0
tp4462
g6
tp4463
F-12.350000000000001
s((F15.0
F13.0
F7.0
tp4464
I00
tp4465
F-0.0007276682788781887
s((F11.0
F15.0
F9.0
tp4466
g6
tp4467
F-14.905
s((F7.0
F14.0
F6.0
tp4468
I00
tp4469
F-0.16860149020477805
s((F14.0
F18.0
F8.0
tp4470
I00
tp4471
F0.0
s((F7.0
F9.0
F3.0
tp4472
I01
tp4473
F0.018555084911965277
s((F13.0
F9.0
F8.0
tp4474
I01
tp4475
F1.1152377686963726e-06
s((F19.0
F14.0
F8.0
tp4476
I00
tp4477
F0.0
s((F11.0
F11.0
F4.0
tp4478
I01
tp4479
F8.888230300713388
s((F17.0
F11.0
F5.0
tp4480
I00
tp4481
F0.047382146508180734
s((F6.0
F12.0
F9.0
tp4482
I00
tp4483
F0.0
s((F18.0
F11.0
F10.0
tp4484
I00
tp4485
F0.0
s((F19.0
F11.0
F4.0
tp4486
I01
tp4487
F0.0
s((F11.0
F10.0
F3.0
tp4488
I00
tp4489
F13.61590302981761
s((F6.0
F15.0
F9.0
tp4490
I00
tp4491
F-6.087475392787041
s((F1.0
F11.0
F10.0
tp4492
I01
tp4493
F99.99999999999996
s((F11.0
F18.0
F8.0
tp4494
g6
tp4495
F-10.45
s((F0.0
F13.0
F10.0
tp4496
g6
tp4497
F0.0
s((F9.0
F11.0
F7.0
tp4498
I01
tp4499
F13.643119876231907
s((F15.0
F10.0
F10.0
tp4500
I01
tp4501
F0.0
s((F10.0
F13.0
F9.0
tp4502
I00
tp4503
F-0.2606025174307642
s((F9.0
F9.0
F10.0
tp4504
I01
tp4505
F13.64312902808334
s((F20.0
F11.0
F4.0
tp4506
I01
tp4507
F0.0
s((F11.0
F13.0
F7.0
tp4508
g6
tp4509
F-31.324303450000002
s((F16.0
F13.0
F10.0
tp4510
I01
tp4511
F0.0
s((F4.0
F11.0
F2.0
tp4512
I00
tp4513
F0.0
s((F16.0
F6.0
F3.0
tp4514
I00
tp4515
F0.0
s((F14.0
F10.0
F5.0
tp4516
I01
tp4517
F0.0
s((F1.0
F13.0
F6.0
tp4518
I00
tp4519
F99.99999409462541
s((F8.0
F11.0
F2.0
tp4520
I01
tp4521
F13.643129028083322
s((F18.0
F11.0
F9.0
tp4522
I01
tp4523
F0.0
s((F3.0
F11.0
F6.0
tp4524
I01
tp4525
F0.12686055680323696
s((F17.0
F10.0
F3.0
tp4526
I00
tp4527
F1.6303212580437496
s((F6.0
F13.0
F1.0
tp4528
I00
tp4529
F10.67096666861583
s((F15.0
F10.0
F6.0
tp4530
I00
tp4531
F0.0
s((F7.0
F18.0
F5.0
tp4532
I00
tp4533
F0.0
s((F11.0
F12.0
F8.0
tp4534
I00
tp4535
F-0.2940345000000001
s((F7.0
F16.0
F9.0
tp4536
g6
tp4537
F-9.485
s((F12.0
F14.0
F10.0
tp4538
g6
tp4539
F-11.4
s((F20.0
F11.0
F7.0
tp4540
I00
tp4541
F0.0
s((F16.0
F12.0
F8.0
tp4542
I00
tp4543
F0.0
s((F18.0
F9.0
F6.0
tp4544
I01
tp4545
F0.21822365905913269
s((F10.0
F14.0
F8.0
tp4546
I00
tp4547
F-0.6243392200500001
s((F15.0
F10.0
F4.0
tp4548
I00
tp4549
F3.0609944092102697
s((F15.0
F7.0
F7.0
tp4550
I01
tp4551
F0.0
s((F17.0
F6.0
F-2.0
tp4552
g6
tp4553
F-8.5
s((F20.0
F14.0
F3.0
tp4554
I00
tp4555
F0.0
s((F12.0
F9.0
F10.0
tp4556
I00
tp4557
F12.684069464124361
s((F11.0
F11.0
F7.0
tp4558
I01
tp4559
F0.0
s((F9.0
F19.0
F9.0
tp4560
g6
tp4561
F-4.5
s((F6.0
F12.0
F3.0
tp4562
I00
tp4563
F0.05507348527276991
s((F15.0
F10.0
F9.0
tp4564
I01
tp4565
F0.0
s((F14.0
F7.0
F10.0
tp4566
I01
tp4567
F3.2884715651647433e-06
s((F14.0
F8.0
F8.0
tp4568
I01
tp4569
F0.0
s((F17.0
F6.0
F1.0
tp4570
I01
tp4571
F5.45030732606189e-09
s((F3.0
F11.0
F10.0
tp4572
I01
tp4573
F0.007699672447331856
s((F12.0
F18.0
F6.0
tp4574
I00
tp4575
F0.0
s((F13.0
F12.0
F3.0
tp4576
I00
tp4577
F0.15829407185276953
s((F13.0
F13.0
F10.0
tp4578
g267
tp4579
F-6.5
s((F2.0
F12.0
F6.0
tp4580
I01
tp4581
F30.960610942508815
s((F6.0
F9.0
F2.0
tp4582
I01
tp4583
F-0.6775000000000001
s((F12.0
F9.0
F9.0
tp4584
I01
tp4585
F4.91699443802116
s((F19.0
F11.0
F-1.0
tp4586
I01
tp4587
F0.0
s((F5.0
F6.0
F1.0
tp4588
g6
tp4589
F-2.5
s((F16.0
F16.0
F10.0
tp4590
I01
tp4591
F0.0
s((F16.0
F8.0
F0.0
tp4592
I00
tp4593
F-1.52
s((F7.0
F10.0
F9.0
tp4594
I01
tp4595
F0.0
s((F20.0
F13.0
F8.0
tp4596
I01
tp4597
F0.0
s((F2.0
F11.0
F7.0
tp4598
I01
tp4599
F0.8346820571215302
s((F14.0
F12.0
F10.0
tp4600
I00
tp4601
F-0.05963815000000001
s((F9.0
F9.0
F1.0
tp4602
I00
tp4603
F0.0
s((F14.0
F13.0
F7.0
tp4604
I00
tp4605
F-0.0005963440521730356
s((F15.0
F12.0
F6.0
tp4606
I01
tp4607
F0.0
s((F12.0
F11.0
F6.0
tp4608
I01
tp4609
F0.0
s((F11.0
F19.0
F9.0
tp4610
g6
tp4611
F-14.905
s((F7.0
F6.0
F10.0
tp4612
I00
tp4613
F0.0
s((F14.0
F12.0
F9.0
tp4614
I01
tp4615
F-0.06000000000000001
s((F12.0
F11.0
F9.0
tp4616
I01
tp4617
F-1.8970000000000006e-06
s((F6.0
F17.0
F7.0
tp4618
I01
tp4619
F-0.6775000000000001
s((F7.0
F11.0
F2.0
tp4620
I01
tp4621
F6.711562046570684
s((F12.0
F8.0
F7.0
tp4622
I01
tp4623
F1.1152377686963726e-05
s((F19.0
F9.0
F8.0
tp4624
I00
tp4625
F0.009748023615177546
s((F17.0
F10.0
F8.0
tp4626
I01
tp4627
F0.0
s((F14.0
F14.0
F6.0
tp4628
I00
tp4629
F0.0
s((F18.0
F10.0
F8.0
tp4630
I00
tp4631
F0.0
s((F8.0
F12.0
F2.0
tp4632
I00
tp4633
F13.643129028083306
s((F5.0
F12.0
F10.0
tp4634
I01
tp4635
F-0.38
s((F17.0
F8.0
F9.0
tp4636
I01
tp4637
F0.0
s((F16.0
F9.0
F2.0
tp4638
I00
tp4639
F0.0
s((F7.0
F12.0
F3.0
tp4640
I01
tp4641
F0.6081517907888208
s((F17.0
F6.0
F2.0
tp4642
I01
tp4643
F0.0
s((F15.0
F12.0
F5.0
tp4644
I00
tp4645
F0.0
s((F14.0
F10.0
F10.0
tp4646
I01
tp4647
F0.0
s((F8.0
F16.0
F3.0
tp4648
I00
tp4649
F0.0
s((F5.0
F16.0
F6.0
tp4650
g6
tp4651
F-2.5
s((F12.0
F13.0
F6.0
tp4652
I00
tp4653
F0.0
s((F4.0
F11.0
F4.0
tp4654
I01
tp4655
F0.7966151087142498
s((F18.0
F7.0
F0.0
tp4656
I00
tp4657
F0.0
s((F8.0
F17.0
F9.0
tp4658
I01
tp4659
F-0.9485
s((F17.0
F13.0
F5.0
tp4660
I01
tp4661
F0.0
s((F4.0
F13.0
F7.0
tp4662
I00
tp4663
F1.1206091786506174
s((F16.0
F13.0
F4.0
tp4664
I00
tp4665
F0.0
s((F12.0
F13.0
F5.0
tp4666
I00
tp4667
F0.0
s((F19.0
F8.0
F2.0
tp4668
I00
tp4669
F6.88259879421215e-11
s((F18.0
F8.0
F-2.0
tp4670
I00
tp4671
F0.0
s((F13.0
F18.0
F7.0
tp4672
I01
tp4673
F0.0
s((F15.0
F11.0
F8.0
tp4674
I00
tp4675
F0.0
s((F13.0
F17.0
F10.0
tp4676
I00
tp4677
F0.0
s((F14.0
F15.0
F9.0
tp4678
I01
tp4679
F-0.30894000000000005
s((F20.0
F9.0
F5.0
tp4680
I00
tp4681
F0.1875103654798433
s((F19.0
F13.0
F5.0
tp4682
I00
tp4683
F0.0
s((F16.0
F16.0
F9.0
tp4684
I01
tp4685
F0.0
s((F11.0
F9.0
F7.0
tp4686
I01
tp4687
F0.0
s((F5.0
F13.0
F7.0
tp4688
g6
tp4689
F-11.713975
s((F11.0
F9.0
F10.0
tp4690
I00
tp4691
F12.782846032156453
s((F9.0
F15.0
F7.0
tp4692
I00
tp4693
F-0.011664000250000006
s((F4.0
F12.0
F9.0
tp4694
I00
tp4695
F-8.367330807872061e-105
s((F6.0
F16.0
F8.0
tp4696
g6
tp4697
F-5.7
s((F11.0
F10.0
F9.0
tp4698
I01
tp4699
F13.112126848550908
s((F5.0
F10.0
F3.0
tp4700
I00
tp4701
F0.0
s((F13.0
F9.0
F5.0
tp4702
I00
tp4703
F4.820062003882945
s((F6.0
F5.0
F0.0
tp4704
g6
tp4705
F-3.0
s((F11.0
F13.0
F4.0
tp4706
I00
tp4707
F0.0
s((F10.0
F10.0
F5.0
tp4708
I00
tp4709
F13.643129028083358
s((F9.0
F11.0
F3.0
tp4710
I01
tp4711
F13.64312902808334
s((F10.0
F18.0
F5.0
tp4712
I00
tp4713
F0.0
s((F6.0
F14.0
F6.0
tp4714
I01
tp4715
F-7.246648282327008
s((F15.0
F18.0
F10.0
tp4716
I00
tp4717
F0.0
s((F18.0
F14.0
F8.0
tp4718
I00
tp4719
F0.0
s((F10.0
F15.0
F9.0
tp4720
I01
tp4721
F0.0
s((F7.0
F16.0
F9.0
tp4722
I00
tp4723
F-0.3906025
s((F16.0
F10.0
F10.0
tp4724
I01
tp4725
F0.0
s((F7.0
F12.0
F2.0
tp4726
I01
tp4727
F5.921656667903624
s((F10.0
F10.0
F6.0
tp4728
I01
tp4729
F13.638853569488479
s((F11.0
F18.0
F10.0
tp4730
I00
tp4731
F0.0
s((F9.0
F11.0
F4.0
tp4732
I00
tp4733
F13.643129028032925
s((F12.0
F17.0
F10.0
tp4734
I00
tp4735
F-1.045
s((F7.0
F13.0
F9.0
tp4736
I00
tp4737
F-1.3138873307169416
s((F3.0
F13.0
F7.0
tp4738
I00
tp4739
F4.394031176856784
s((F19.0
F11.0
F0.0
tp4740
I01
tp4741
F0.0
s((F16.0
F17.0
F10.0
tp4742
I01
tp4743
F0.0
s((F16.0
F3.0
F1.0
tp4744
g6
tp4745
F-8.0
s((F13.0
F11.0
F5.0
tp4746
I01
tp4747
F0.0
s((F12.0
F8.0
F9.0
tp4748
I00
tp4749
F0.0
s((F7.0
F16.0
F5.0
tp4750
I01
tp4751
F-0.007000000000000001
s((F20.0
F13.0
F9.0
tp4752
I00
tp4753
F0.0
s((F15.0
F5.0
F0.0
tp4754
g6
tp4755
F-7.5
s((F7.0
F15.0
F9.0
tp4756
g6
tp4757
F-18.259608500000002
s((F11.0
F16.0
F8.0
tp4758
I00
tp4759
F-3.1815859649207816
s((F14.0
F14.0
F8.0
tp4760
I00
tp4761
F-0.060081625915735605
s((F19.0
F13.0
F2.0
tp4762
I00
tp4763
F0.0
s((F15.0
F17.0
F9.0
tp4764
I00
tp4765
F0.0
s((F13.0
F13.0
F10.0
tp4766
I00
tp4767
F-0.8013771414066837
s((F20.0
F13.0
F4.0
tp4768
I01
tp4769
F0.0
s((F18.0
F11.0
F1.0
tp4770
I00
tp4771
F0.4377053937541082
s((F17.0
F12.0
F3.0
tp4772
I01
tp4773
F0.0
s((F12.0
F8.0
F10.0
tp4774
I01
tp4775
F1.354413355842177
s((F7.0
F10.0
F8.0
tp4776
I00
tp4777
F0.0
s((F10.0
F17.0
F9.0
tp4778
I01
tp4779
F-0.45
s((F6.0
F14.0
F5.0
tp4780
I01
tp4781
F-5.230816509290133
s((F4.0
F13.0
F9.0
tp4782
I01
tp4783
F-0.28500000000000003
s((F9.0
F16.0
F7.0
tp4784
I00
tp4785
F-0.32400000000000007
s((F7.0
F17.0
F8.0
tp4786
I01
tp4787
F-0.025
s((F17.0
F11.0
F8.0
tp4788
I01
tp4789
F0.0
s((F10.0
F17.0
F10.0
tp4790
I00
tp4791
F-0.07600000000000001
s((F7.0
F13.0
F7.0
tp4792
g6
tp4793
F-12.0365
s((F10.0
F15.0
F10.0
tp4794
I01
tp4795
F-0.45
s((F2.0
F13.0
F6.0
tp4796
I01
tp4797
F0.0
s((F6.0
F10.0
F2.0
tp4798
I01
tp4799
F-0.47500000000000003
s((F19.0
F10.0
F9.0
tp4800
I00
tp4801
F0.0
s((F18.0
F9.0
F2.0
tp4802
I00
tp4803
F1.1402411414691724
s((F6.0
F14.0
F9.0
tp4804
I00
tp4805
F-14.193186258616066
s((F12.0
F7.0
F7.0
tp4806
I00
tp4807
F0.0
s((F7.0
F16.0
F6.0
tp4808
I01
tp4809
F0.0
s((F11.0
F16.0
F6.0
tp4810
I01
tp4811
F0.0
s((F19.0
F9.0
F7.0
tp4812
I00
tp4813
F0.17510824402653336
s((F20.0
F12.0
F8.0
tp4814
I01
tp4815
F0.0
s((F9.0
F11.0
F6.0
tp4816
I01
tp4817
F10.66392520327385
s((F15.0
F10.0
F2.0
tp4818
I01
tp4819
F2.69473548834762
s((F7.0
F15.0
F10.0
tp4820
I00
tp4821
F-1.7387400792878354
s((F17.0
F3.0
F-2.0
tp4822
g6
tp4823
F-8.5
s((F18.0
F12.0
F8.0
tp4824
I01
tp4825
F0.0
s((F12.0
F10.0
F10.0
tp4826
I01
tp4827
F0.0
s((F12.0
F15.0
F10.0
tp4828
I01
tp4829
F-2.2106885000000003
s((F18.0
F15.0
F8.0
tp4830
I00
tp4831
F0.0
s((F19.0
F14.0
F8.0
tp4832
I01
tp4833
F0.0
s((F8.0
F16.0
F5.0
tp4834
I00
tp4835
F-0.00022500000000000005
s((F5.0
F12.0
F1.0
tp4836
I00
tp4837
F1.6781469479530327
s((F13.0
F11.0
F7.0
tp4838
I01
tp4839
F0.0
s((F4.0
F13.0
F10.0
tp4840
I01
tp4841
F-0.15000000000000002
s((F10.0
F9.0
F2.0
tp4842
I00
tp4843
F0.012106077365782352
s((F19.0
F15.0
F10.0
tp4844
I01
tp4845
F0.0
s((F11.0
F11.0
F4.0
tp4846
I00
tp4847
F13.643129028020839
s((F17.0
F11.0
F7.0
tp4848
I01
tp4849
F0.0
s((F16.0
F10.0
F8.0
tp4850
I00
tp4851
F0.0
s((F15.0
F10.0
F5.0
tp4852
I00
tp4853
F1.6971006487755573
s((F9.0
F10.0
F9.0
tp4854
I00
tp4855
F0.0
s((F14.0
F12.0
F6.0
tp4856
I01
tp4857
F0.0
s((F17.0
F11.0
F5.0
tp4858
I01
tp4859
F0.0
s((F12.0
F11.0
F2.0
tp4860
I00
tp4861
F9.752793004136022
s((F7.0
F14.0
F4.0
tp4862
I00
tp4863
F-0.17939261587974997
s((F13.0
F12.0
F8.0
tp4864
I01
tp4865
F0.0
s((F14.0
F16.0
F9.0
tp4866
I00
tp4867
F-0.2141817066000001
s((F20.0
F10.0
F1.0
tp4868
I01
tp4869
F7.145452847884121e-10
s((F14.0
F17.0
F8.0
tp4870
I00
tp4871
F0.0
s((F1.0
F13.0
F9.0
tp4872
I00
tp4873
F0.0
s((F16.0
F11.0
F2.0
tp4874
I01
tp4875
F0.0
s((F13.0
F9.0
F2.0
tp4876
g267
tp4877
F-6.5
s((F12.0
F19.0
F10.0
tp4878
I00
tp4879
F-1.54
s((F12.0
F12.0
F9.0
tp4880
I00
tp4881
F-0.6759009788092538
s((F16.0
F6.0
F1.0
tp4882
I01
tp4883
F0.0
s((F11.0
F11.0
F6.0
tp4884
I01
tp4885
F0.0
s((F5.0
F11.0
F2.0
tp4886
I01
tp4887
F0.7034365883324729
s((F11.0
F17.0
F5.0
tp4888
I00
tp4889
F0.0
s((F15.0
F10.0
F3.0
tp4890
I00
tp4891
F1.3233865814961414
s((F17.0
F7.0
F-1.0
tp4892
I00
tp4893
F-0.8
s((F18.0
F6.0
F-1.0
tp4894
I00
tp4895
F0.0
s((F3.0
F12.0
F6.0
tp4896
I00
tp4897
F33.20901566488689
s((F9.0
F17.0
F10.0
tp4898
g6
tp4899
F-12.195
s((F8.0
F15.0
F10.0
tp4900
g6
tp4901
F-16.3804
s((F12.0
F14.0
F8.0
tp4902
I01
tp4903
F0.0
s((F6.0
F10.0
F3.0
tp4904
I00
tp4905
F0.0
s((F14.0
F16.0
F5.0
tp4906
I00
tp4907
F0.0
s((F6.0
F9.0
F10.0
tp4908
I01
tp4909
F5.983414674179357
s((F0.0
F13.0
F8.0
tp4910
I01
tp4911
F79.41088678418552
s((F17.0
F7.0
F2.0
tp4912
I00
tp4913
F0.0
s((F15.0
F10.0
F4.0
tp4914
I01
tp4915
F0.0
s((F9.0
F17.0
F5.0
tp4916
I01
tp4917
F0.0
s((F8.0
F17.0
F4.0
tp4918
I00
tp4919
F0.0
s((F10.0
F13.0
F10.0
tp4920
g6
tp4921
F-5.0
s((F9.0
F15.0
F10.0
tp4922
g6
tp4923
F-8.55
s((F20.0
F9.0
F1.0
tp4924
I01
tp4925
F0.09885877943863111
s((F6.0
F12.0
F1.0
tp4926
I01
tp4927
F13.643129028083287
s((F20.0
F10.0
F2.0
tp4928
I01
tp4929
F6.312236442038762e-10
s((F18.0
F11.0
F0.0
tp4930
I00
tp4931
F0.22202025237341666
s((F12.0
F15.0
F9.0
tp4932
g6
tp4933
F-16.259999999999998
s((F3.0
F10.0
F2.0
tp4934
I00
tp4935
F0.0
s((F12.0
F14.0
F7.0
tp4936
g6
tp4937
F-6.0
s((F8.0
F9.0
F3.0
tp4938
I01
tp4939
F4.624516354564843
s((F12.0
F6.0
F6.0
tp4940
I00
tp4941
F0.0
s((F9.0
F19.0
F10.0
tp4942
g6
tp4943
F-8.55
s((F13.0
F11.0
F6.0
tp4944
I00
tp4945
F0.0
s((F4.0
F11.0
F9.0
tp4946
I00
tp4947
F0.0
s((F9.0
F17.0
F9.0
tp4948
I00
tp4949
F-0.32400000000000007
s((F17.0
F10.0
F9.0
tp4950
I01
tp4951
F0.0
s((F11.0
F8.0
F6.0
tp4952
I01
tp4953
F0.0
s((F11.0
F11.0
F9.0
tp4954
I01
tp4955
F-6.050846959479313e-05
s((F14.0
F8.0
F10.0
tp4956
I01
tp4957
F3.078423342964558
s((F15.0
F9.0
F10.0
tp4958
I00
tp4959
F0.0
s((F8.0
F13.0
F8.0
tp4960
I00
tp4961
F-1.266561180518036
s((F17.0
F9.0
F1.0
tp4962
I00
tp4963
F0.0
s((F6.0
F13.0
F4.0
tp4964
I00
tp4965
F0.0
s((F6.0
F12.0
F6.0
tp4966
I00
tp4967
F13.643129028020434
s((F18.0
F11.0
F7.0
tp4968
I01
tp4969
F0.0
s((F18.0
F6.0
F1.0
tp4970
I01
tp4971
F0.0
s((F11.0
F7.0
F10.0
tp4972
I01
tp4973
F0.0
s((F-1.0
F11.0
F10.0
tp4974
g1836
tp4975
F10.0
s((F19.0
F12.0
F3.0
tp4976
I00
tp4977
F0.04130894630027892
s((F14.0
F11.0
F8.0
tp4978
I01
tp4979
F0.0
s((F12.0
F13.0
F8.0
tp4980
I01
tp4981
F-2.8693670500000006
s((F16.0
F4.0
F0.0
tp4982
g6
tp4983
F-8.0
s((F9.0
F18.0
F5.0
tp4984
I01
tp4985
F0.0
s((F19.0
F12.0
F0.0
tp4986
I01
tp4987
F0.0
s((F11.0
F8.0
F10.0
tp4988
I00
tp4989
F0.0
s((F13.0
F9.0
F4.0
tp4990
I00
tp4991
F1.9078885860343435
s((F16.0
F7.0
F-2.0
tp4992
g6
tp4993
F-21.68
s((F2.0
F13.0
F8.0
tp4994
g6
tp4995
F-1.0
s((F16.0
F13.0
F7.0
tp4996
I00
tp4997
F0.0
s((F9.0
F13.0
F10.0
tp4998
I00
tp4999
F-3.2829949615
s((F10.0
F15.0
F4.0
tp5000
I00
tp5001
F0.0
s((F10.0
F16.0
F5.0
tp5002
I00
tp5003
F0.0
s((F12.0
F9.0
F2.0
tp5004
I01
tp5005
F11.203022417085386
s((F6.0
F13.0
F6.0
tp5006
I01
tp5007
F-7.5019899172009765
s((F7.0
F12.0
F6.0
tp5008
I00
tp5009
F6.330831405517966
s((F7.0
F15.0
F9.0
tp5010
I00
tp5011
F-0.2950471696500001
s((F14.0
F12.0
F4.0
tp5012
I00
tp5013
F0.0
s((F20.0
F9.0
F2.0
tp5014
I01
tp5015
F0.0155429209223336
s((F8.0
F10.0
F5.0
tp5016
I01
tp5017
F0.5619884037523377
s((F19.0
F11.0
F3.0
tp5018
I01
tp5019
F0.0
s((F11.0
F15.0
F7.0
tp5020
I00
tp5021
F0.0
s((F12.0
F13.0
F7.0
tp5022
I00
tp5023
F-7.522652360223556e-79
s((F11.0
F8.0
F9.0
tp5024
I01
tp5025
F0.0
s((F13.0
F13.0
F3.0
tp5026
I00
tp5027
F0.0
s((F10.0
F8.0
F9.0
tp5028
I00
tp5029
F0.0
s((F17.0
F10.0
F10.0
tp5030
I01
tp5031
F0.0
s((F17.0
F6.0
F-3.0
tp5032
g6
tp5033
F-8.5
s((F13.0
F7.0
F10.0
tp5034
I01
tp5035
F1.6611720615896176e-05
s((F19.0
F8.0
F0.0
tp5036
I01
tp5037
F0.4879972063002924
s((F7.0
F12.0
F5.0
tp5038
I01
tp5039
F0.0
s((F11.0
F14.0
F9.0
tp5040
g6
tp5041
F-31.324303450000002
s((F15.0
F17.0
F7.0
tp5042
I00
tp5043
F0.0
s((F19.0
F13.0
F6.0
tp5044
I01
tp5045
F0.0
s((F17.0
F15.0
F7.0
tp5046
I00
tp5047
F0.0
s((F8.0
F9.0
F2.0
tp5048
I01
tp5049
F9.751722390212343
s((F12.0
F18.0
F8.0
tp5050
I01
tp5051
F0.0
s((F10.0
F9.0
F10.0
tp5052
I00
tp5053
F13.643129028083358
s((F5.0
F15.0
F9.0
tp5054
g6
tp5055
F-21.96058363523577
s((F13.0
F10.0
F3.0
tp5056
I00
tp5057
F8.735952768543463
s((F16.0
F15.0
F10.0
tp5058
I00
tp5059
F-0.0004374000000000002
s((F5.0
F9.0
F10.0
tp5060
g6
tp5061
F-8.5975
s((F19.0
F9.0
F2.0
tp5062
I00
tp5063
F0.8504613135572223
s((F11.0
F18.0
F7.0
tp5064
g6
tp5065
F-10.45
s((F3.0
F11.0
F3.0
tp5066
I00
tp5067
F0.0
s((F16.0
F8.0
F1.0
tp5068
I00
tp5069
F-2.168
s((F18.0
F11.0
F6.0
tp5070
I01
tp5071
F0.0
s((F8.0
F8.0
F10.0
tp5072
I01
tp5073
F3.4613807764075246
s((F1.0
F13.0
F9.0
tp5074
g6
tp5075
F-3.7290670858355
s((F10.0
F14.0
F9.0
tp5076
g6
tp5077
F-26.085155
s((F15.0
F15.0
F9.0
tp5078
I00
tp5079
F-0.0397483766597862
s((F8.0
F9.0
F1.0
tp5080
I00
tp5081
F0.0
s((F5.0
F9.0
F2.0
tp5082
g6
tp5083
F-2.5
s((F5.0
F9.0
F1.0
tp5084
g6
tp5085
F-2.5
s((F18.0
F11.0
F9.0
tp5086
I00
tp5087
F0.0
s((F16.0
F5.0
F10.0
tp5088
I00
tp5089
F0.0
s((F20.0
F13.0
F1.0
tp5090
I00
tp5091
F0.0
s((F13.0
F10.0
F4.0
tp5092
I00
tp5093
F6.039456551919785
s((F20.0
F12.0
F3.0
tp5094
I01
tp5095
F0.0
s((F13.0
F9.0
F7.0
tp5096
I00
tp5097
F1.5298186127522255e-06
s((F19.0
F11.0
F-1.0
tp5098
I00
tp5099
F0.5089626992323806
s((F4.0
F9.0
F1.0
tp5100
g6
tp5101
F-2.0
s((F13.0
F7.0
F9.0
tp5102
I01
tp5103
F0.0
s((F12.0
F16.0
F6.0
tp5104
I00
tp5105
F0.0
s((F3.0
F12.0
F5.0
tp5106
I01
tp5107
F5.911642226257909e-05
s((F10.0
F12.0
F8.0
tp5108
I00
tp5109
F-0.0010015693202500005
s((F5.0
F10.0
F10.0
tp5110
I01
tp5111
F13.669241939634407
s((F11.0
F13.0
F7.0
tp5112
I00
tp5113
F-5.119080861823239e-05
s((F19.0
F10.0
F6.0
tp5114
I01
tp5115
F0.0
s((F19.0
F13.0
F5.0
tp5116
I01
tp5117
F0.0
s((F11.0
F12.0
F4.0
tp5118
I01
tp5119
F0.0
s((F17.0
F12.0
F9.0
tp5120
I00
tp5121
F0.0
s((F15.0
F16.0
F6.0
tp5122
I00
tp5123
F0.0
s((F9.0
F14.0
F5.0
tp5124
I00
tp5125
F0.0
s((F9.0
F16.0
F9.0
tp5126
g6
tp5127
F-8.55
s((F10.0
F12.0
F6.0
tp5128
I00
tp5129
F13.643129028083342
s((F20.0
F12.0
F4.0
tp5130
I00
tp5131
F0.0
s((F17.0
F11.0
F3.0
tp5132
I00
tp5133
F0.47836812605697016
s((F18.0
F13.0
F3.0
tp5134
I01
tp5135
F0.0
s((F5.0
F8.0
F1.0
tp5136
g6
tp5137
F-8.5975
s((F5.0
F10.0
F9.0
tp5138
I00
tp5139
F0.0
s((F9.0
F9.0
F7.0
tp5140
I01
tp5141
F0.0
s((F19.0
F10.0
F1.0
tp5142
I00
tp5143
F0.6556466470860004
s((F18.0
F9.0
F10.0
tp5144
I00
tp5145
F0.0
s((F0.0
F11.0
F9.0
tp5146
I01
tp5147
F8.64914828232701
s((F1.0
F12.0
F9.0
tp5148
I01
tp5149
F0.0
s((F16.0
F11.0
F6.0
tp5150
I00
tp5151
F0.0
s((F12.0
F9.0
F5.0
tp5152
I00
tp5153
F13.642913749185684
s((F20.0
F12.0
F0.0
tp5154
I01
tp5155
F0.0
s((F4.0
F9.0
F10.0
tp5156
g6
tp5157
F-3.8
s((F15.0
F14.0
F6.0
tp5158
I00
tp5159
F0.0
s((F15.0
F9.0
F5.0
tp5160
I00
tp5161
F1.440490323120829
s((F14.0
F10.0
F3.0
tp5162
I01
tp5163
F2.041993025956808
s((F18.0
F14.0
F8.0
tp5164
I01
tp5165
F0.0
s((F12.0
F15.0
F7.0
tp5166
I00
tp5167
F0.0
s((F12.0
F10.0
F10.0
tp5168
I00
tp5169
F-5.831004937949718e-05
s((F7.0
F10.0
F10.0
tp5170
I01
tp5171
F13.643129028083306
s((F13.0
F13.0
F8.0
tp5172
I01
tp5173
F-0.6000000000000001
s((F7.0
F14.0
F10.0
tp5174
g6
tp5175
F-18.259608500000002
s((F19.0
F10.0
F5.0
tp5176
I01
tp5177
F0.0
s((F17.0
F8.0
F4.0
tp5178
I00
tp5179
F0.0
s((F5.0
F16.0
F8.0
tp5180
g6
tp5181
F-10.23775
s((F8.0
F15.0
F5.0
tp5182
I00
tp5183
F0.0
s((F11.0
F14.0
F9.0
tp5184
I00
tp5185
F-4.500062672295285
s((F9.0
F10.0
F8.0
tp5186
I00
tp5187
F0.0
s((F11.0
F12.0
F3.0
tp5188
I01
tp5189
F0.0
s((F11.0
F9.0
F1.0
tp5190
g6
tp5191
F-5.5
s((F20.0
F11.0
F5.0
tp5192
I00
tp5193
F1.9992738839118646e-07
s((F9.0
F17.0
F10.0
tp5194
I01
tp5195
F-0.0665
s((F13.0
F12.0
F6.0
tp5196
I01
tp5197
F0.0
s((F18.0
F12.0
F2.0
tp5198
I00
tp5199
F0.1225094310723546
s((F16.0
F3.0
F-2.0
tp5200
g6
tp5201
F-15.2
s((F17.0
F11.0
F6.0
tp5202
I01
tp5203
F0.0
s((F9.0
F12.0
F3.0
tp5204
I00
tp5205
F13.64312902808334
s((F18.0
F8.0
F10.0
tp5206
I01
tp5207
F0.3813972619086441
s((F11.0
F9.0
F9.0
tp5208
I01
tp5209
F5.589745448267645
s((F17.0
F9.0
F4.0
tp5210
I00
tp5211
F1.013740078166788
s((F11.0
F15.0
F7.0
tp5212
g6
tp5213
F-10.45
s((F12.0
F10.0
F9.0
tp5214
I01
tp5215
F12.081119325941417
s((F12.0
F11.0
F8.0
tp5216
I01
tp5217
F0.0
s((F10.0
F10.0
F2.0
tp5218
I01
tp5219
F13.643129028083358
s((F11.0
F18.0
F7.0
tp5220
I00
tp5221
F0.0
s((F16.0
F3.0
F0.0
tp5222
g6
tp5223
F-8.0
s((F13.0
F6.0
F9.0
tp5224
I00
tp5225
F0.0
s((F10.0
F19.0
F10.0
tp5226
g6
tp5227
F-9.5
s((F16.0
F11.0
F3.0
tp5228
I01
tp5229
F0.0
s((F6.0
F16.0
F9.0
tp5230
g6
tp5231
F-5.7
s((F17.0
F8.0
F-1.0
tp5232
g6
tp5233
F-8.5
s((F20.0
F13.0
F6.0
tp5234
I00
tp5235
F0.0
s((F4.0
F11.0
F5.0
tp5236
I01
tp5237
F7.487013150759734
s((F16.0
F14.0
F10.0
tp5238
I00
tp5239
F0.0
s((F14.0
F10.0
F6.0
tp5240
I00
tp5241
F0.0
s((F3.0
F13.0
F8.0
tp5242
I00
tp5243
F0.0
s((F15.0
F6.0
F10.0
tp5244
I01
tp5245
F2.774824542102544e-07
s((F18.0
F12.0
F6.0
tp5246
I00
tp5247
F0.0
s((F18.0
F9.0
F-2.0
tp5248
I00
tp5249
F0.0
s((F10.0
F9.0
F2.0
tp5250
I01
tp5251
F0.0
s((F11.0
F9.0
F5.0
tp5252
I00
tp5253
F13.643095601349433
s((F20.0
F14.0
F2.0
tp5254
I01
tp5255
F0.0
s((F12.0
F15.0
F8.0
tp5256
g6
tp5257
F-6.0
s((F6.0
F7.0
F0.0
tp5258
g6
tp5259
F-3.0
s((F19.0
F9.0
F5.0
tp5260
I00
tp5261
F0.2667338794157173
s((F11.0
F19.0
F7.0
tp5262
g6
tp5263
F-5.5
s((F16.0
F7.0
F10.0
tp5264
I00
tp5265
F2.496529090711288e-08
s((F14.0
F11.0
F3.0
tp5266
I01
tp5267
F0.0
s((F19.0
F11.0
F7.0
tp5268
I01
tp5269
F0.0
s((F13.0
F7.0
F7.0
tp5270
I00
tp5271
F0.0
s((F5.0
F17.0
F9.0
tp5272
g6
tp5273
F-11.713975
s((F11.0
F18.0
F7.0
tp5274
I01
tp5275
F0.0
s((F15.0
F13.0
F7.0
tp5276
I01
tp5277
F0.0
s((F17.0
F10.0
F7.0
tp5278
I00
tp5279
F0.00014424731837883143
s((F7.0
F14.0
F6.0
tp5280
I01
tp5281
F-2.368749935876502
s((F17.0
F12.0
F7.0
tp5282
I01
tp5283
F0.0
s((F11.0
F17.0
F8.0
tp5284
g6
tp5285
F-18.9145
s((F11.0
F9.0
F6.0
tp5286
I01
tp5287
F0.0
s((F13.0
F9.0
F8.0
tp5288
I00
tp5289
F0.0
s((F6.0
F14.0
F3.0
tp5290
I00
tp5291
F-5.857226938185302
s((F8.0
F12.0
F9.0
tp5292
I00
tp5293
F0.0
s((F12.0
F7.0
F9.0
tp5294
I00
tp5295
F0.0
s((F13.0
F19.0
F10.0
tp5296
I01
tp5297
F-1.626
s((F14.0
F9.0
F2.0
tp5298
I01
tp5299
F3.126375448639177
s((F8.0
F16.0
F8.0
tp5300
I00
tp5301
F0.0
s((F6.0
F12.0
F9.0
tp5302
I01
tp5303
F0.0
s((F18.0
F11.0
F10.0
tp5304
I01
tp5305
F0.0
s((F19.0
F11.0
F4.0
tp5306
I00
tp5307
F0.10299137620498078
s((F13.0
F18.0
F9.0
tp5308
g6
tp5309
F-6.5
s((F16.0
F13.0
F6.0
tp5310
I00
tp5311
F0.0
s((F16.0
F9.0
F4.0
tp5312
I00
tp5313
F1.1245805569997733
s((F16.0
F10.0
F7.0
tp5314
I00
tp5315
F0.0
s((F7.0
F13.0
F10.0
tp5316
I01
tp5317
F-1.6900443619681003
s((F16.0
F5.0
F10.0
tp5318
g6
tp5319
F-15.2
s((F15.0
F7.0
F8.0
tp5320
I01
tp5321
F0.0
s((F15.0
F15.0
F7.0
tp5322
I00
tp5323
F-0.01976995396854776
s((F16.0
F8.0
F0.0
tp5324
g6
tp5325
F-15.2
s((F9.0
F9.0
F10.0
tp5326
I00
tp5327
F1.9249988175527344
s((F14.0
F13.0
F10.0
tp5328
I00
tp5329
F0.0
s((F14.0
F9.0
F10.0
tp5330
I00
tp5331
F0.0
s((F12.0
F12.0
F7.0
tp5332
I00
tp5333
F-4.0517597850871445e-06
s((F19.0
F14.0
F4.0
tp5334
I00
tp5335
F0.0
s((F13.0
F10.0
F8.0
tp5336
I00
tp5337
F0.0
s((F14.0
F14.0
F9.0
tp5338
I00
tp5339
F0.0
s((F11.0
F13.0
F8.0
tp5340
g6
tp5341
F-18.9145
s((F17.0
F9.0
F9.0
tp5342
I00
tp5343
F0.0
s((F19.0
F8.0
F4.0
tp5344
I00
tp5345
F0.0
s((F13.0
F14.0
F8.0
tp5346
g6
tp5347
F-6.5
s((F3.0
F11.0
F6.0
tp5348
I00
tp5349
F0.01836324081903209
s((F11.0
F10.0
F2.0
tp5350
I00
tp5351
F12.563677280117556
s((F15.0
F10.0
F6.0
tp5352
I01
tp5353
F0.0
s((F16.0
F9.0
F3.0
tp5354
I01
tp5355
F1.8889817755763196
s((F13.0
F16.0
F6.0
tp5356
I00
tp5357
F0.0
s((F11.0
F12.0
F8.0
tp5358
I01
tp5359
F-0.045000000000000005
s((F13.0
F15.0
F5.0
tp5360
I00
tp5361
F0.0
s((F18.0
F5.0
F-1.0
tp5362
I01
tp5363
F0.0
s((F10.0
F16.0
F8.0
tp5364
I01
tp5365
F0.0
s((F7.0
F14.0
F3.0
tp5366
I00
tp5367
F0.7038511460888355
s((F13.0
F13.0
F7.0
tp5368
I01
tp5369
F0.0
s((F0.0
F13.0
F10.0
tp5370
I01
tp5371
F83.18705976848139
s((F19.0
F14.0
F7.0
tp5372
I01
tp5373
F0.0
s((F14.0
F10.0
F6.0
tp5374
I01
tp5375
F0.0
s((F13.0
F13.0
F9.0
tp5376
I00
tp5377
F-0.10006309019799949
s((F19.0
F15.0
F9.0
tp5378
I00
tp5379
F0.0
s((F2.0
F12.0
F9.0
tp5380
I01
tp5381
F96.49193503315668
s((F5.0
F13.0
F10.0
tp5382
I01
tp5383
F-0.2
s((F20.0
F14.0
F3.0
tp5384
I01
tp5385
F0.0
s((F6.0
F14.0
F7.0
tp5386
g6
tp5387
F-10.317
s((F12.0
F9.0
F10.0
tp5388
I01
tp5389
F11.204632142322172
s((F8.0
F17.0
F10.0
tp5390
I00
tp5391
F-0.7938000000000002
s((F19.0
F8.0
F3.0
tp5392
I01
tp5393
F1.1351591629706117e-10
s((F5.0
F11.0
F10.0
tp5394
I00
tp5395
F0.0
s((F10.0
F13.0
F8.0
tp5396
g6
tp5397
F-20.4755
s((F6.0
F12.0
F3.0
tp5398
I01
tp5399
F0.0
s((F15.0
F10.0
F9.0
tp5400
I00
tp5401
F0.0
s((F13.0
F16.0
F9.0
tp5402
I01
tp5403
F0.0
s((F17.0
F6.0
F1.0
tp5404
I00
tp5405
F0.0
s((F6.0
F12.0
F4.0
tp5406
I01
tp5407
F1.6827834571740696
s.