(dp0
((F3.0
F11.0
F10.0
tp1
I00
tp2
F13.660876752630053
s((F13.0
F5.0
F10.0
tp3
I01
tp4
F0.0
s((F6.0
F15.0
F9.0
tp5
S'x'
p6
tp7
F-14.056770000000002
s((F4.0
F11.0
F7.0
tp8
I00
tp9
F0.012686055680323697
s((F10.0
F8.0
F3.0
tp10
I01
tp11
F0.0
s((F8.0
F12.0
F2.0
tp12
I01
tp13
F13.577464292261409
s((F20.0
F13.0
F5.0
tp14
I01
tp15
F0.0
s((F2.0
F12.0
F6.0
tp16
I00
tp17
F0.0
s((F12.0
F9.0
F9.0
tp18
I00
tp19
F0.0
s((F14.0
F9.0
F5.0
tp20
I00
tp21
F0.0
s((F17.0
F9.0
F3.0
tp22
I00
tp23
F0.0
s((F10.0
F7.0
F5.0
tp24
I00
tp25
F0.0
s((F17.0
F11.0
F2.0
tp26
I00
tp27
F0.00023893767141428495
s((F16.0
F16.0
F10.0
tp28
I00
tp29
F0.0
s((F19.0
F11.0
F9.0
tp30
I00
tp31
F0.0
s((F18.0
F8.0
F4.0
tp32
I00
tp33
F0.0
s((F19.0
F10.0
F8.0
tp34
I00
tp35
F0.0
s((F2.0
F11.0
F7.0
tp36
I00
tp37
F0.0
s((F20.0
F10.0
F8.0
tp38
I01
tp39
F0.0
s((F10.0
F11.0
F7.0
tp40
I00
tp41
F8.704844822972797
s((F9.0
F11.0
F4.0
tp42
I00
tp43
F13.543695505519109
s((F7.0
F6.0
F10.0
tp44
I01
tp45
F0.0
s((F14.0
F11.0
F6.0
tp46
I00
tp47
F0.0
s((F1.0
F12.0
F7.0
tp48
I01
tp49
F99.73543132361004
s((F8.0
F17.0
F10.0
tp50
I01
tp51
F-0.665
s((F8.0
F15.0
F8.0
tp52
g6
tp53
F-4.0
s((F11.0
F16.0
F5.0
tp54
I01
tp55
F0.0
s((F10.0
F16.0
F7.0
tp56
I00
tp57
F-0.00013075000000000006
s((F11.0
F9.0
F10.0
tp58
I01
tp59
F13.550055404909807
s((F17.0
F8.0
F9.0
tp60
I00
tp61
F0.0
s((F13.0
F7.0
F10.0
tp62
I00
tp63
F0.0
s((F16.0
F9.0
F2.0
tp64
I01
tp65
F0.0013104781785034248
s((F10.0
F11.0
F3.0
tp66
I01
tp67
F13.470784648379784
s((F7.0
F12.0
F3.0
tp68
I00
tp69
F3.581815111813794
s((F12.0
F19.0
F7.0
tp70
g6
tp71
F-6.0
s((F11.0
F18.0
F10.0
tp72
I01
tp73
F-0.55
s((F18.0
F7.0
F0.0
tp74
I01
tp75
F7.548156717895598e-10
s((F8.0
F17.0
F9.0
tp76
I00
tp77
F0.0
s((F8.0
F12.0
F6.0
tp78
I00
tp79
F8.300342470213684
s((F12.0
F8.0
F8.0
tp80
I01
tp81
F1.1152377686963726e-05
s((F8.0
F13.0
F3.0
tp82
I00
tp83
F5.049155464874716
s((F11.0
F11.0
F3.0
tp84
I00
tp85
F13.6533755790017
s((F20.0
F14.0
F8.0
tp86
I01
tp87
F0.0
s((F19.0
F8.0
F2.0
tp88
I01
tp89
F0.000929203744170444
s((F13.0
F17.0
F7.0
tp90
I00
tp91
F0.0
s((F13.0
F18.0
F7.0
tp92
I00
tp93
F0.0
s((F16.0
F4.0
F1.0
tp94
g6
tp95
F-8.0
s((F14.0
F15.0
F9.0
tp96
I00
tp97
F-0.09570046294711317
s((F12.0
F17.0
F9.0
tp98
I01
tp99
F0.0
s((F12.0
F18.0
F10.0
tp100
I01
tp101
F-0.55
s((F13.0
F12.0
F9.0
tp102
I01
tp103
F-0.19855
s((F19.0
F12.0
F10.0
tp104
I00
tp105
F0.0
s((F9.0
F15.0
F7.0
tp106
I01
tp107
F0.0
s((F4.0
F12.0
F9.0
tp108
I01
tp109
F0.0
s((F19.0
F10.0
F0.0
tp110
I01
tp111
F1.499592355450261e-05
s((F5.0
F13.0
F8.0
tp112
I00
tp113
F0.0
s((F18.0
F12.0
F1.0
tp114
I01
tp115
F0.0
s((F19.0
F13.0
F8.0
tp116
I00
tp117
F0.0
s((F15.0
F11.0
F4.0
tp118
I00
tp119
F0.0
s((F11.0
F10.0
F9.0
tp120
I00
tp121
F0.28513823173247516
s((F13.0
F9.0
F5.0
tp122
I01
tp123
F1.1152377686963726e-06
s((F10.0
F11.0
F8.0
tp124
I00
tp125
F1.1318570199742455
s((F5.0
F16.0
F10.0
tp126
g6
tp127
F-16.2830389975
s((F20.0
F9.0
F4.0
tp128
I00
tp129
F0.00020468615382424708
s((F13.0
F11.0
F5.0
tp130
I00
tp131
F0.0
s((F10.0
F10.0
F5.0
tp132
I01
tp133
F13.657106423802023
s((F15.0
F17.0
F10.0
tp134
I01
tp135
F-0.065
s((F17.0
F14.0
F5.0
tp136
I00
tp137
F0.0
s((F18.0
F6.0
F1.0
tp138
I00
tp139
F0.0
s((F13.0
F19.0
F9.0
tp140
g6
tp141
F-12.350000000000001
s((F18.0
F12.0
F10.0
tp142
I01
tp143
F0.0
s((F6.0
F14.0
F6.0
tp144
I00
tp145
F-12.553902662892746
s((F7.0
F15.0
F7.0
tp146
g6
tp147
F-6.65
s((F15.0
F18.0
F10.0
tp148
I01
tp149
F-0.06450000000000002
s((F5.0
F11.0
F7.0
tp150
I00
tp151
F0.0
s((F7.0
F12.0
F1.0
tp152
I01
tp153
F13.085411514698555
s((F18.0
F11.0
F1.0
tp154
I01
tp155
F0.0
s((F16.0
F10.0
F10.0
tp156
I00
tp157
F0.0
s((F18.0
F11.0
F4.0
tp158
I01
tp159
F0.0
s((F3.0
F11.0
F9.0
tp160
I00
tp161
F0.6811716351949608
s((F9.0
F15.0
F4.0
tp162
I01
tp163
F0.0
s((F12.0
F17.0
F10.0
tp164
I01
tp165
F-3.1928050000000003
s((F14.0
F13.0
F4.0
tp166
I00
tp167
F0.0
s((F18.0
F9.0
F5.0
tp168
I01
tp169
F0.0005649178690513839
s((F6.0
F14.0
F10.0
tp170
I01
tp171
F-6.756589978634311
s((F10.0
F18.0
F6.0
tp172
I00
tp173
F0.0
s((F16.0
F3.0
F-2.0
tp174
g6
tp175
F-15.2
s((F8.0
F16.0
F4.0
tp176
I01
tp177
F0.0
s((F7.0
F16.0
F8.0
tp178
I00
tp179
F0.0
s((F7.0
F10.0
F2.0
tp180
I01
tp181
F0.035175060452671894
s((F12.0
F17.0
F6.0
tp182
I00
tp183
F0.0
s((F5.0
F7.0
F9.0
tp184
g6
tp185
F-2.5
s((F10.0
F13.0
F6.0
tp186
I00
tp187
F0.0
s((F11.0
F16.0
F8.0
tp188
I01
tp189
F0.0
s((F18.0
F11.0
F0.0
tp190
I01
tp191
F0.0
s((F18.0
F11.0
F-1.0
tp192
I01
tp193
F0.0
s((F15.0
F17.0
F9.0
tp194
I01
tp195
F0.0
s((F12.0
F14.0
F10.0
tp196
I01
tp197
F-1.045
s((F14.0
F17.0
F7.0
tp198
I00
tp199
F0.0
s((F10.0
F10.0
F6.0
tp200
I01
tp201
F0.8032342488825818
s((F12.0
F15.0
F5.0
tp202
I00
tp203
F0.0
s((F4.0
F12.0
F2.0
tp204
I01
tp205
F7.2909074343024205
s((F12.0
F8.0
F10.0
tp206
I00
tp207
F0.0
s((F7.0
F10.0
F8.0
tp208
I01
tp209
F0.0
s((F16.0
F7.0
F2.0
tp210
I00
tp211
F0.0
s((F12.0
F13.0
F8.0
tp212
g6
tp213
F-11.4
s((F10.0
F17.0
F9.0
tp214
I00
tp215
F-0.45
s((F4.0
F13.0
F9.0
tp216
I00
tp217
F-0.28500000000000003
s((F16.0
F6.0
F10.0
tp218
g6
tp219
F-15.2
s((F7.0
F17.0
F8.0
tp220
I00
tp221
F-0.2835000000000001
s((F18.0
F10.0
F2.0
tp222
I01
tp223
F0.0002055338394948337
s((F17.0
F11.0
F8.0
tp224
I00
tp225
F0.0
s((F10.0
F17.0
F10.0
tp226
I01
tp227
F-0.45
s((F17.0
F5.0
F-2.0
tp228
g6
tp229
F-8.5
s((F8.0
F16.0
F10.0
tp230
g6
tp231
F-10.84
s((F9.0
F10.0
F10.0
tp232
I00
tp233
F1.4287967246703444
s((F18.0
F14.0
F7.0
tp234
I01
tp235
F0.0
s((F12.0
F11.0
F5.0
tp236
I01
tp237
F0.0
s((F18.0
F11.0
F0.0
tp238
I00
tp239
F1.736457459422153e-06
s((F19.0
F13.0
F3.0
tp240
I00
tp241
F0.0
s((F16.0
F16.0
F7.0
tp242
I01
tp243
F0.0
s((F11.0
F13.0
F9.0
tp244
g6
tp245
F-5.5
s((F18.0
F9.0
F2.0
tp246
I01
tp247
F0.001049629554910976
s((F11.0
F11.0
F4.0
tp248
I01
tp249
F1.3695422660715506
s((F6.0
F14.0
F9.0
tp250
I01
tp251
F-7.173023443106761
s((F12.0
F12.0
F10.0
tp252
I01
tp253
F-1.2872500000000003e-06
s((F6.0
F13.0
F9.0
tp254
I01
tp255
F-0.6775000000000001
s((F11.0
F17.0
F6.0
tp256
I01
tp257
F0.0
s((F-1.0
F11.0
F8.0
tp258
S's'
p259
tp260
F10.0
s((F19.0
F9.0
F7.0
tp261
I01
tp262
F4.555526741833013e-05
s((F17.0
F7.0
F10.0
tp263
I01
tp264
F0.0028235161543330453
s((F18.0
F11.0
F10.0
tp265
I00
tp266
F0.0
s((F7.0
F6.0
F1.0
tp267
I00
tp268
F0.0
s((F11.0
F17.0
F7.0
tp269
I00
tp270
F0.0
s((F18.0
F12.0
F8.0
tp271
I00
tp272
F0.0
s((F5.0
F12.0
F4.0
tp273
I00
tp274
F0.012273577331065023
s((F12.0
F18.0
F8.0
tp275
g6
tp276
F-16.259999999999998
s((F15.0
F14.0
F9.0
tp277
I00
tp278
F-0.058082621381039444
s((F16.0
F7.0
F8.0
tp279
I00
tp280
F0.0
s((F5.0
F11.0
F1.0
tp281
I01
tp282
F10.805553829673462
s((F11.0
F10.0
F10.0
tp283
I00
tp284
F0.9494822265293352
s((F16.0
F7.0
F-2.0
tp285
g6
tp286
F-21.68
s((F9.0
F9.0
F6.0
tp287
I01
tp288
F0.0
s((F6.0
F13.0
F5.0
tp289
I01
tp290
F0.0
s((F18.0
F8.0
F0.0
tp291
I01
tp292
F0.0021346069798719924
s((F14.0
F12.0
F6.0
tp293
I00
tp294
F0.0
s((F14.0
F16.0
F9.0
tp295
I01
tp296
F-0.11400000000000002
s((F1.0
F13.0
F9.0
tp297
I01
tp298
F0.0
s((F10.0
F15.0
F6.0
tp299
I00
tp300
F0.0
s((F11.0
F16.0
F9.0
tp301
g6
tp302
F-25.770745
s((F5.0
F13.0
F4.0
tp303
I00
tp304
F0.0
s((F12.0
F12.0
F9.0
tp305
I01
tp306
F-0.09500000000000001
s((F11.0
F11.0
F6.0
tp307
I00
tp308
F0.7605113948529458
s((F8.0
F16.0
F6.0
tp309
I00
tp310
F0.0
s((F9.0
F12.0
F9.0
tp311
I01
tp312
F-0.07311212118167927
s((F10.0
F12.0
F7.0
tp313
I00
tp314
F-0.0010940406807139382
s((F11.0
F17.0
F5.0
tp315
I01
tp316
F0.0
s((F9.0
F12.0
F10.0
tp317
I00
tp318
F-0.0029220527500000005
s((F13.0
F11.0
F6.0
tp319
I01
tp320
F0.0
s((F7.0
F14.0
F8.0
tp321
I00
tp322
F-3.041164476706286
s((F11.0
F15.0
F6.0
tp323
I01
tp324
F0.0
s((F14.0
F16.0
F6.0
tp325
I00
tp326
F0.0
s((F12.0
F14.0
F8.0
tp327
I00
tp328
F0.0
s((F19.0
F12.0
F7.0
tp329
I00
tp330
F0.0
s((F15.0
F16.0
F8.0
tp331
I00
tp332
F0.0
s((F6.0
F18.0
F7.0
tp333
I00
tp334
F-0.8170000000000002
s((F7.0
F12.0
F8.0
tp335
I00
tp336
F-0.06405639642419238
s((F14.0
F8.0
F3.0
tp337
I01
tp338
F0.0
s((F11.0
F9.0
F2.0
tp339
I01
tp340
F8.797417295673165
s((F9.0
F9.0
F10.0
tp341
I01
tp342
F13.657706694294745
s((F3.0
F11.0
F5.0
tp343
I00
tp344
F99.99999999942172
s((F20.0
F9.0
F1.0
tp345
I00
tp346
F0.0006546778335166242
s((F20.0
F10.0
F2.0
tp347
I00
tp348
F0.0006100116089751277
s((F8.0
F14.0
F9.0
tp349
I01
tp350
F-2.7232415000000003
s((F18.0
F8.0
F3.0
tp351
I01
tp352
F7.598896144055939e-10
s((F13.0
F13.0
F9.0
tp353
I01
tp354
F-0.3593755
s((F9.0
F8.0
F10.0
tp355
I00
tp356
F0.0
s((F9.0
F17.0
F9.0
tp357
I01
tp358
F-0.76
s((F17.0
F10.0
F9.0
tp359
I00
tp360
F0.0
s((F15.0
F8.0
F7.0
tp361
I01
tp362
F0.0
s((F16.0
F5.0
F-1.0
tp363
g6
tp364
F-8.0
s((F14.0
F9.0
F8.0
tp365
I00
tp366
F0.0
s((F14.0
F8.0
F10.0
tp367
I00
tp368
F1.2559685212587666e-06
s((F8.0
F14.0
F5.0
tp369
I00
tp370
F0.0
s((F8.0
F15.0
F4.0
tp371
I00
tp372
F0.0
s((F5.0
F17.0
F4.0
tp373
g6
tp374
F-2.5
s((F17.0
F9.0
F1.0
tp375
I01
tp376
F0.0014912766060395893
s((F18.0
F11.0
F7.0
tp377
I00
tp378
F0.0
s((F13.0
F17.0
F9.0
tp379
I00
tp380
F-1.4588646000000003
s((F15.0
F14.0
F5.0
tp381
I00
tp382
F0.0
s((F9.0
F15.0
F10.0
tp383
I00
tp384
F-0.395
s((F16.0
F9.0
F10.0
tp385
g6
tp386
F-27.512
s((F6.0
F11.0
F4.0
tp387
I01
tp388
F8.891333485540956
s((F16.0
F3.0
F-1.0
tp389
g6
tp390
F-8.0
s((F6.0
F18.0
F7.0
tp391
g6
tp392
F-3.0
s((F4.0
F11.0
F8.0
tp393
I00
tp394
F0.0
s((F11.0
F8.0
F10.0
tp395
I01
tp396
F2.822790157338247
s((F18.0
F10.0
F1.0
tp397
I01
tp398
F0.0002134226978468653
s((F8.0
F11.0
F2.0
tp399
I01
tp400
F13.65559514568234
s((F18.0
F11.0
F3.0
tp401
I01
tp402
F0.0
s((F13.0
F14.0
F9.0
tp403
I01
tp404
F-1.1400000000000001
s((F10.0
F16.0
F5.0
tp405
I01
tp406
F0.0
s((F9.0
F10.0
F6.0
tp407
I00
tp408
F0.02794519122318397
s((F14.0
F10.0
F10.0
tp409
I00
tp410
F0.0
s((F7.0
F15.0
F9.0
tp411
I01
tp412
F-0.50314525
s((F9.0
F9.0
F3.0
tp413
I01
tp414
F0.0
s((F6.0
F11.0
F8.0
tp415
I00
tp416
F0.0
s((F13.0
F8.0
F7.0
tp417
I01
tp418
F0.0
s((F19.0
F12.0
F2.0
tp419
I00
tp420
F6.0313327665137844e-05
s((F11.0
F15.0
F7.0
tp421
I01
tp422
F0.0
s((F16.0
F5.0
F9.0
tp423
I01
tp424
F2.884581751119909e-08
s((F11.0
F8.0
F9.0
tp425
I00
tp426
F0.0
s((F12.0
F17.0
F10.0
tp427
g6
tp428
F-16.259999999999998
s((F10.0
F14.0
F9.0
tp429
I00
tp430
F-1.6966251348316552
s((F10.0
F8.0
F9.0
tp431
I01
tp432
F0.0
s((F9.0
F14.0
F8.0
tp433
I00
tp434
F-0.2110575036023855
s((F7.0
F12.0
F10.0
tp435
I00
tp436
F0.0
s((F7.0
F10.0
F6.0
tp437
I01
tp438
F0.0
s((F6.0
F12.0
F5.0
tp439
I00
tp440
F2.7338984045508053e-10
s((F7.0
F12.0
F5.0
tp441
I00
tp442
F1.6827875143200353
s((F6.0
F11.0
F7.0
tp443
I01
tp444
F0.0
s((F8.0
F8.0
F9.0
tp445
I01
tp446
F0.0
s((F19.0
F13.0
F6.0
tp447
I00
tp448
F0.0
s((F3.0
F13.0
F8.0
tp449
g6
tp450
F-5.1585
s((F11.0
F15.0
F4.0
tp451
I00
tp452
F0.0
s((F3.0
F11.0
F6.0
tp453
I01
tp454
F0.12686055680323696
s((F12.0
F18.0
F8.0
tp455
I00
tp456
F0.0
s((F16.0
F12.0
F5.0
tp457
I00
tp458
F0.0
s((F7.0
F19.0
F9.0
tp459
g6
tp460
F-3.5
s((F5.0
F13.0
F3.0
tp461
I00
tp462
F1.124461837215252
s((F10.0
F14.0
F10.0
tp463
I01
tp464
F-1.5835500000000002
s((F7.0
F11.0
F7.0
tp465
I00
tp466
F0.046782671853227764
s((F5.0
F15.0
F10.0
tp467
g6
tp468
F-22.264525271712195
s((F16.0
F15.0
F10.0
tp469
I01
tp470
F-0.0006000000000000003
s((F12.0
F9.0
F3.0
tp471
I01
tp472
F2.011037128353549
s((F5.0
F15.0
F6.0
tp473
g6
tp474
F-4.75
s((F7.0
F12.0
F9.0
tp475
I01
tp476
F-0.022019425000000006
s((F17.0
F11.0
F4.0
tp477
I01
tp478
F0.0
s((F13.0
F14.0
F10.0
tp479
I01
tp480
F-0.6000000000000001
s((F15.0
F13.0
F4.0
tp481
I00
tp482
F0.0
s((F12.0
F18.0
F9.0
tp483
g6
tp484
F-6.0
s((F19.0
F9.0
F9.0
tp485
I00
tp486
F0.0
s((F16.0
F8.0
F1.0
tp487
I01
tp488
F-2.1679999996376593
s((F8.0
F8.0
F10.0
tp489
I00
tp490
F0.0
s((F12.0
F17.0
F8.0
tp491
I00
tp492
F-0.3247695000000001
s((F16.0
F12.0
F6.0
tp493
I01
tp494
F0.0
s((F16.0
F5.0
F10.0
tp495
I01
tp496
F0.0
s((F13.0
F11.0
F7.0
tp497
I00
tp498
F0.0
s((F14.0
F9.0
F3.0
tp499
I01
tp500
F0.009885107984368665
s((F11.0
F9.0
F3.0
tp501
I00
tp502
F0.0
s((F13.0
F10.0
F4.0
tp503
I01
tp504
F0.0
s((F13.0
F9.0
F7.0
tp505
I01
tp506
F0.0
s((F19.0
F9.0
F3.0
tp507
I00
tp508
F1.0743800886249212e-08
s((F3.0
F12.0
F10.0
tp509
I01
tp510
F-0.4065
s((F3.0
F13.0
F9.0
tp511
g6
tp512
F-6.142650000000001
s((F11.0
F13.0
F7.0
tp513
I01
tp514
F-0.020868124000000005
s((F18.0
F8.0
F1.0
tp515
I00
tp516
F3.4418557236528956e-10
s((F16.0
F15.0
F9.0
tp517
I01
tp518
F0.0
s((F2.0
F13.0
F10.0
tp519
I01
tp520
F-0.05
s((F9.0
F17.0
F6.0
tp521
I00
tp522
F0.0
s((F12.0
F14.0
F10.0
tp523
g6
tp524
F-11.4
s((F18.0
F10.0
F10.0
tp525
I01
tp526
F0.0
s((F18.0
F13.0
F8.0
tp527
I01
tp528
F0.0
s((F11.0
F9.0
F4.0
tp529
I01
tp530
F13.626635737011043
s((F14.0
F14.0
F4.0
tp531
I00
tp532
F0.0
s((F17.0
F9.0
F-1.0
tp533
I01
tp534
F-0.8
s((F18.0
F13.0
F6.0
tp535
I00
tp536
F0.0
s((F13.0
F18.0
F9.0
tp537
I01
tp538
F-1.1400000000000001
s((F17.0
F11.0
F3.0
tp539
I01
tp540
F0.0
s((F18.0
F9.0
F10.0
tp541
I01
tp542
F0.0004800403517311293
s((F8.0
F11.0
F9.0
tp543
I01
tp544
F0.012437026743680805
s((F17.0
F13.0
F9.0
tp545
I00
tp546
F0.0
s((F15.0
F7.0
F10.0
tp547
I01
tp548
F5.524618718728078e-07
s((F1.0
F12.0
F9.0
tp549
I00
tp550
F43.827938497607654
s((F15.0
F12.0
F8.0
tp551
I00
tp552
F0.0
s((F16.0
F11.0
F6.0
tp553
I01
tp554
F0.0
s((F18.0
F9.0
F6.0
tp555
I01
tp556
F0.00043577372641573125
s((F20.0
F12.0
F0.0
tp557
I00
tp558
F1.6098925191018724e-05
s((F15.0
F14.0
F6.0
tp559
I01
tp560
F0.0
s((F15.0
F9.0
F5.0
tp561
I01
tp562
F0.0
s((F13.0
F8.0
F9.0
tp563
I00
tp564
F8.271718530420997e-06
s((F6.0
F15.0
F6.0
tp565
I00
tp566
F-2.003089725
s((F19.0
F9.0
F6.0
tp567
I01
tp568
F7.738903360170318e-05
s((F8.0
F12.0
F8.0
tp569
I01
tp570
F-0.07259750000000001
s((F14.0
F15.0
F6.0
tp571
I00
tp572
F0.0
s((F19.0
F10.0
F5.0
tp573
I00
tp574
F0.0002537447057296715
s((F17.0
F8.0
F4.0
tp575
I01
tp576
F0.0
s((F16.0
F11.0
F10.0
tp577
I00
tp578
F0.0
s((F9.0
F10.0
F8.0
tp579
I01
tp580
F2.9087393418246714
s((F14.0
F16.0
F10.0
tp581
I01
tp582
F-0.06000000000000001
s((F16.0
F9.0
F6.0
tp583
I01
tp584
F0.00014717184600599652
s((F18.0
F9.0
F7.0
tp585
I01
tp586
F0.0
s((F14.0
F18.0
F9.0
tp587
I00
tp588
F0.0
s((F9.0
F17.0
F10.0
tp589
I00
tp590
F-2.338382947680001
s((F19.0
F14.0
F5.0
tp591
I01
tp592
F0.0
s((F14.0
F9.0
F7.0
tp593
I01
tp594
F0.0
s((F12.0
F15.0
F6.0
tp595
I00
tp596
F0.0
s((F20.0
F14.0
F5.0
tp597
I01
tp598
F0.0
s((F12.0
F8.0
F3.0
tp599
I01
tp600
F0.0
s((F18.0
F8.0
F10.0
tp601
I00
tp602
F0.0
s((F20.0
F14.0
F3.0
tp603
I00
tp604
F0.0
s((F15.0
F9.0
F3.0
tp605
I00
tp606
F0.0
s((F16.0
F10.0
F4.0
tp607
I01
tp608
F5.923846538477101e-10
s((F10.0
F10.0
F2.0
tp609
I00
tp610
F0.0
s((F11.0
F15.0
F9.0
tp611
I00
tp612
F-0.2630632950000001
s((F4.0
F8.0
F1.0
tp613
g6
tp614
F-2.0
s((F16.0
F11.0
F3.0
tp615
I00
tp616
F0.00016889964032402693
s((F14.0
F18.0
F10.0
tp617
I01
tp618
F-0.6450000000000001
s((F12.0
F12.0
F8.0
tp619
I01
tp620
F0.0
s((F19.0
F13.0
F1.0
tp621
I01
tp622
F0.0
s((F16.0
F8.0
F8.0
tp623
I01
tp624
F0.0
s((F18.0
F9.0
F-2.0
tp625
I01
tp626
F0.001160783248617875
s((F2.0
F13.0
F8.0
tp627
I01
tp628
F0.0
s((F17.0
F9.0
F6.0
tp629
I01
tp630
F0.00045758630061298823
s((F20.0
F14.0
F2.0
tp631
I00
tp632
F0.0
s((F7.0
F11.0
F2.0
tp633
I01
tp634
F6.711562046570684
s((F19.0
F9.0
F5.0
tp635
I01
tp636
F0.0003859666909124094
s((F18.0
F10.0
F-2.0
tp637
I01
tp638
F0.00033743685376820635
s((F16.0
F7.0
F10.0
tp639
I01
tp640
F0.001696134006631525
s((F17.0
F9.0
F5.0
tp641
I00
tp642
F1.0120292657301907e-06
s((F13.0
F7.0
F7.0
tp643
I01
tp644
F2.6159898278063056e-06
s((F13.0
F18.0
F9.0
tp645
g6
tp646
F-6.5
s((F10.0
F10.0
F9.0
tp647
I00
tp648
F0.36748822012975624
s((F7.0
F13.0
F9.0
tp649
I01
tp650
F-1.046330962775
s((F13.0
F13.0
F4.0
tp651
I00
tp652
F0.0
s((F20.0
F11.0
F6.0
tp653
I00
tp654
F0.0
s((F15.0
F6.0
F8.0
tp655
I00
tp656
F0.0
s((F16.0
F13.0
F8.0
tp657
I00
tp658
F0.0
s((F14.0
F10.0
F7.0
tp659
I00
tp660
F0.0
s((F17.0
F12.0
F7.0
tp661
I00
tp662
F0.0
s((F20.0
F14.0
F6.0
tp663
I01
tp664
F0.0
s((F19.0
F7.0
F0.0
tp665
I00
tp666
F9.163597594040629e-12
s((F18.0
F12.0
F7.0
tp667
I00
tp668
F0.0
s((F16.0
F15.0
F8.0
tp669
I00
tp670
F0.0
s((F9.0
F13.0
F6.0
tp671
I00
tp672
F0.0
s((F6.0
F14.0
F3.0
tp673
I01
tp674
F-1.7939261587974997
s((F8.0
F12.0
F9.0
tp675
I01
tp676
F-0.009025000000000002
s((F10.0
F14.0
F7.0
tp677
I00
tp678
F-1.6585155000000005
s((F7.0
F14.0
F7.0
tp679
I00
tp680
F-2.270093504590152
s((F7.0
F13.0
F5.0
tp681
I00
tp682
F0.09966193974995743
s((F17.0
F14.0
F10.0
tp683
I00
tp684
F0.0
s((F17.0
F7.0
F-2.0
tp685
g6
tp686
F-8.5
s((F16.0
F9.0
F4.0
tp687
I01
tp688
F0.00013080125800552837
s((F9.0
F10.0
F9.0
tp689
I00
tp690
F0.0
s((F16.0
F10.0
F7.0
tp691
I01
tp692
F0.0
s((F7.0
F13.0
F10.0
tp693
I00
tp694
F-1.0415615211644071
s((F20.0
F11.0
F9.0
tp695
I01
tp696
F0.0
s((F15.0
F15.0
F7.0
tp697
I01
tp698
F0.0
s((F11.0
F19.0
F8.0
tp699
g6
tp700
F-14.905
s((F11.0
F18.0
F9.0
tp701
g6
tp702
F-14.905
s((F7.0
F11.0
F8.0
tp703
I01
tp704
F0.0
s((F14.0
F13.0
F10.0
tp705
I01
tp706
F-0.06000000000000001
s((F11.0
F14.0
F8.0
tp707
g6
tp708
F-25.770745
s((F12.0
F12.0
F7.0
tp709
I01
tp710
F0.0
s((F17.0
F6.0
F1.0
tp711
I01
tp712
F5.45030732606189e-09
s((F19.0
F14.0
F4.0
tp713
I01
tp714
F0.0
s((F13.0
F10.0
F8.0
tp715
I01
tp716
F0.0
s((F7.0
F18.0
F8.0
tp717
g6
tp718
F-9.485
s((F17.0
F9.0
F0.0
tp719
I01
tp720
F-1.5199956105802872
s((F17.0
F9.0
F9.0
tp721
I01
tp722
F0.0
s((F19.0
F8.0
F4.0
tp723
I01
tp724
F4.669231538203535e-11
s((F11.0
F10.0
F2.0
tp725
I01
tp726
F7.079772606268149
s((F17.0
F14.0
F9.0
tp727
I01
tp728
F0.0
s((F16.0
F9.0
F3.0
tp729
I00
tp730
F0.0
s((F7.0
F18.0
F10.0
tp731
I00
tp732
F0.0
s((F14.0
F13.0
F6.0
tp733
I00
tp734
F0.0
s((F14.0
F11.0
F5.0
tp735
I01
tp736
F0.0
s((F12.0
F14.0
F7.0
tp737
I00
tp738
F-5.970106645269381e-12
s((F19.0
F14.0
F7.0
tp739
I00
tp740
F0.0
s((F20.0
F13.0
F6.0
tp741
I01
tp742
F0.0
s((F8.0
F17.0
F10.0
tp743
g6
tp744
F-7.6
s((F16.0
F14.0
F5.0
tp745
I00
tp746
F0.0
s((F19.0
F15.0
F9.0
tp747
I01
tp748
F0.0
s((F19.0
F11.0
F3.0
tp749
I00
tp750
F0.0001728159454471152
s((F19.0
F8.0
F3.0
tp751
I00
tp752
F0.0
s((F11.0
F19.0
F10.0
tp753
I01
tp754
F0.0
s((F13.0
F16.0
F9.0
tp755
I00
tp756
F-0.4374000000000001
s((F14.0
F12.0
F8.0
tp757
I01
tp758
F0.0
s((F14.0
F13.0
F9.0
tp759
I01
tp760
F-0.06000000000000001
s((F15.0
F12.0
F4.0
tp761
I00
tp762
F0.0
s((F7.0
F14.0
F2.0
tp763
I00
tp764
F9.054610406452198
s((F9.0
F18.0
F8.0
tp765
I01
tp766
F0.0
s((F13.0
F12.0
F3.0
tp767
I00
tp768
F0.0
s((F20.0
F13.0
F5.0
tp769
I00
tp770
F0.0
s((F4.0
F13.0
F6.0
tp771
I00
tp772
F0.07910244937381067
s((F19.0
F9.0
F10.0
tp773
I01
tp774
F0.00010043622668920513
s((F7.0
F17.0
F9.0
tp775
I00
tp776
F-1.3223809620000002
s((F17.0
F10.0
F6.0
tp777
I00
tp778
F3.628368978221511e-10
s((F8.0
F14.0
F7.0
tp779
I00
tp780
F-0.9431691653392056
s((F15.0
F10.0
F7.0
tp781
I01
tp782
F0.0
s((F17.0
F9.0
F3.0
tp783
I01
tp784
F0.001264227028823564
s((F15.0
F11.0
F9.0
tp785
I00
tp786
F0.0
s((F20.0
F10.0
F7.0
tp787
I00
tp788
F9.501198135646166e-06
s((F19.0
F11.0
F9.0
tp789
I01
tp790
F0.0
s((F19.0
F10.0
F8.0
tp791
I01
tp792
F0.0
s((F17.0
F16.0
F8.0
tp793
I00
tp794
F0.0
s((F20.0
F10.0
F8.0
tp795
I00
tp796
F0.0
s((F19.0
F12.0
F9.0
tp797
I01
tp798
F0.0
s((F10.0
F17.0
F9.0
tp799
g6
tp800
F-9.5
s((F14.0
F11.0
F6.0
tp801
I01
tp802
F0.0
s((F6.0
F14.0
F8.0
tp803
I01
tp804
F-4.38848728
s((F1.0
F12.0
F7.0
tp805
I00
tp806
F99.99999999999991
s((F6.0
F12.0
F2.0
tp807
I01
tp808
F0.0016276272779485524
s((F11.0
F16.0
F5.0
tp809
I00
tp810
F0.0
s((F10.0
F16.0
F7.0
tp811
I01
tp812
F0.0
s((F5.0
F13.0
F5.0
tp813
g6
tp814
F-19.852721697633775
s((F12.0
F10.0
F2.0
tp815
I01
tp816
F1.9156074305698085
s((F16.0
F9.0
F1.0
tp817
I01
tp818
F0.0014975402949899397
s((F11.0
F16.0
F8.0
tp819
g6
tp820
F-31.324303450000002
s((F20.0
F10.0
F4.0
tp821
I01
tp822
F1.0163735203820257e-11
s((F10.0
F11.0
F3.0
tp823
I00
tp824
F13.659695376665034
s((F18.0
F8.0
F5.0
tp825
I00
tp826
F0.0
s((F16.0
F10.0
F6.0
tp827
I01
tp828
F0.0
s((F20.0
F9.0
F8.0
tp829
I00
tp830
F7.790084329681936e-06
s((F18.0
F12.0
F1.0
tp831
I00
tp832
F7.800257876671808e-10
s((F19.0
F13.0
F8.0
tp833
I01
tp834
F0.0
s((F11.0
F17.0
F8.0
tp835
I01
tp836
F-1.045
s((F7.0
F11.0
F6.0
tp837
I00
tp838
F0.12384446722552647
s((F19.0
F9.0
F9.0
tp839
I01
tp840
F0.0
s((F7.0
F17.0
F10.0
tp841
g6
tp842
F-12.0365
s((F11.0
F11.0
F5.0
tp843
I00
tp844
F7.051928118613875
s((F11.0
F11.0
F3.0
tp845
I01
tp846
F12.4793324717387
s((F5.0
F10.0
F1.0
tp847
I01
tp848
F8.93892449415047
s((F20.0
F14.0
F8.0
tp849
I00
tp850
F0.0
s((F6.0
F13.0
F2.0
tp851
I01
tp852
F0.0
s((F12.0
F17.0
F9.0
tp853
I00
tp854
F-0.1045
s((F12.0
F18.0
F10.0
tp855
I00
tp856
F-0.55
s((F7.0
F18.0
F10.0
tp857
g6
tp858
F-12.0365
s((F8.0
F11.0
F1.0
tp859
I01
tp860
F2.7226912855659875
s((F13.0
F12.0
F9.0
tp861
I00
tp862
F0.0
s((F6.0
F8.0
F1.0
tp863
I00
tp864
F0.0
s((F12.0
F16.0
F7.0
tp865
g6
tp866
F-11.4
s((F19.0
F12.0
F-1.0
tp867
I00
tp868
F0.00019186729706545792
s((F19.0
F12.0
F10.0
tp869
I01
tp870
F0.0
s((F8.0
F12.0
F7.0
tp871
I00
tp872
F0.0
s((F6.0
F16.0
F9.0
tp873
I00
tp874
F-3.7423600000000006
s((F7.0
F7.0
F1.0
tp875
g6
tp876
F-3.5
s((F12.0
F19.0
F10.0
tp877
g6
tp878
F-16.259999999999998
s((F17.0
F15.0
F9.0
tp879
I00
tp880
F0.0
s((F15.0
F13.0
F9.0
tp881
I00
tp882
F-0.02739520088146782
s((F7.0
F15.0
F3.0
tp883
I00
tp884
F0.0
s((F14.0
F15.0
F8.0
tp885
I00
tp886
F-0.05482051957184807
s((F20.0
F9.0
F4.0
tp887
I01
tp888
F9.733332941914664e-05
s((F15.0
F17.0
F10.0
tp889
I00
tp890
F0.0
s((F19.0
F12.0
F6.0
tp891
I00
tp892
F0.0
s((F9.0
F7.0
F10.0
tp893
I01
tp894
F0.22518795563304775
s((F16.0
F17.0
F8.0
tp895
I00
tp896
F0.0
s((F6.0
F18.0
F9.0
tp897
g6
tp898
F-3.0
s((F5.0
F17.0
F5.0
tp899
g6
tp900
F-2.5
s((F18.0
F12.0
F10.0
tp901
I00
tp902
F0.0
s((F18.0
F11.0
F-1.0
tp903
I00
tp904
F0.0
s((F15.0
F8.0
F10.0
tp905
I00
tp906
F0.0
s((F6.0
F6.0
F10.0
tp907
g6
tp908
F-3.0
s((F7.0
F12.0
F1.0
tp909
I00
tp910
F3.071716205428817
s((F13.0
F16.0
F9.0
tp911
g6
tp912
F-6.5
s((F9.0
F10.0
F9.0
tp913
I01
tp914
F13.635831318090418
s((F6.0
F10.0
F9.0
tp915
I01
tp916
F0.0
s((F3.0
F11.0
F9.0
tp917
I01
tp918
F0.02137599019156246
s((F9.0
F15.0
F4.0
tp919
I00
tp920
F0.0
s((F8.0
F11.0
F5.0
tp921
I01
tp922
F0.31719301532964056
s((F18.0
F9.0
F5.0
tp923
I00
tp924
F0.00026554081420686234
s((F18.0
F10.0
F1.0
tp925
I00
tp926
F0.00017772704498726874
s((F6.0
F14.0
F10.0
tp927
I00
tp928
F-11.739977596593544
s((F16.0
F8.0
F0.0
tp929
I01
tp930
F-1.52
s((F12.0
F11.0
F6.0
tp931
I01
tp932
F0.0
s((F18.0
F14.0
F7.0
tp933
I00
tp934
F0.0
s((F16.0
F5.0
F-2.0
tp935
g6
tp936
F-15.2
s((F11.0
F13.0
F9.0
tp937
I00
tp938
F-2.7222388765849113
s((F8.0
F16.0
F4.0
tp939
I00
tp940
F0.0
s((F7.0
F16.0
F8.0
tp941
I01
tp942
F0.0
s((F12.0
F17.0
F6.0
tp943
I01
tp944
F0.0
s((F10.0
F13.0
F6.0
tp945
I01
tp946
F0.0
s((F18.0
F9.0
F1.0
tp947
I01
tp948
F0.0013720306376219227
s((F2.0
F11.0
F4.0
tp949
I01
tp950
F99.99999999959587
s((F0.0
F12.0
F10.0
tp951
I01
tp952
F99.99999999915534
s((F6.0
F17.0
F7.0
tp953
I00
tp954
F-0.7000000000000001
s((F10.0
F16.0
F7.0
tp955
g6
tp956
F-5.0
s((F12.0
F14.0
F10.0
tp957
I00
tp958
F-1.6261245
s((F1.0
F12.0
F10.0
tp959
I00
tp960
F90.09314666915374
s((F15.0
F18.0
F9.0
tp961
I00
tp962
F0.0
s((F5.0
F12.0
F7.0
tp963
I01
tp964
F0.0
s((F5.0
F11.0
F4.0
tp965
I01
tp966
F6.595990778219047
s((F16.0
F7.0
F2.0
tp967
I01
tp968
F0.0
s((F11.0
F10.0
F5.0
tp969
I01
tp970
F13.65793377585195
s((F18.0
F10.0
F2.0
tp971
I00
tp972
F0.000567467621189129
s((F10.0
F10.0
F6.0
tp973
I00
tp974
F12.75425689259816
s((F16.0
F11.0
F8.0
tp975
I00
tp976
F0.0
s((F9.0
F10.0
F10.0
tp977
I01
tp978
F13.65519663714818
s((F9.0
F13.0
F8.0
tp979
g6
tp980
F-8.55
s((F8.0
F14.0
F10.0
tp981
g6
tp982
F-18.74236
s((F12.0
F11.0
F5.0
tp983
I00
tp984
F10.059829464441021
s((F19.0
F13.0
F3.0
tp985
I01
tp986
F0.0
s((F11.0
F14.0
F3.0
tp987
I01
tp988
F0.0
s((F10.0
F7.0
F1.0
tp989
g6
tp990
F-5.0
s((F17.0
F9.0
F-1.0
tp991
g6
tp992
F-8.5
s((F12.0
F12.0
F10.0
tp993
I00
tp994
F-2.214788950301125
s((F15.0
F6.0
F1.0
tp995
I01
tp996
F0.0
s((F5.0
F17.0
F8.0
tp997
g6
tp998
F-13.0425775
s((F6.0
F13.0
F9.0
tp999
I00
tp1000
F-3.1527065275000004
s((F10.0
F12.0
F4.0
tp1001
I01
tp1002
F0.0
s((F11.0
F17.0
F6.0
tp1003
I00
tp1004
F0.0
s((F10.0
F13.0
F5.0
tp1005
I01
tp1006
F0.0
s((F17.0
F11.0
F9.0
tp1007
I00
tp1008
F0.0
s((F10.0
F13.0
F7.0
tp1009
g6
tp1010
F-23.42795
s((F17.0
F7.0
F10.0
tp1011
I00
tp1012
F0.0
s((F20.0
F11.0
F1.0
tp1013
I01
tp1014
F0.0
s((F13.0
F12.0
F10.0
tp1015
I00
tp1016
F-0.4099727692299747
s((F9.0
F16.0
F3.0
tp1017
I00
tp1018
F0.0
s((F17.0
F13.0
F6.0
tp1019
I00
tp1020
F0.0
s((F20.0
F12.0
F6.0
tp1021
I01
tp1022
F0.0
s((F11.0
F15.0
F8.0
tp1023
I01
tp1024
F0.0
s((F9.0
F16.0
F10.0
tp1025
I00
tp1026
F-0.21257640000000008
s((F17.0
F9.0
F8.0
tp1027
I01
tp1028
F0.0
s((F10.0
F16.0
F8.0
tp1029
I00
tp1030
F-0.405
s((F16.0
F8.0
F10.0
tp1031
g6
tp1032
F-27.512
s((F16.0
F7.0
F8.0
tp1033
I01
tp1034
F0.0
s((F11.0
F10.0
F10.0
tp1035
I01
tp1036
F-6.775000000000002e-06
s((F14.0
F9.0
F9.0
tp1037
I01
tp1038
F0.0
s((F19.0
F10.0
F3.0
tp1039
I01
tp1040
F4.3113660886858984e-05
s((F6.0
F13.0
F5.0
tp1041
I00
tp1042
F-1.580855936345344e-24
s((F18.0
F8.0
F0.0
tp1043
I00
tp1044
F0.0
s((F13.0
F13.0
F6.0
tp1045
I00
tp1046
F0.0
s((F18.0
F10.0
F8.0
tp1047
I00
tp1048
F0.0
s((F9.0
F15.0
F10.0
tp1049
I01
tp1050
F-1.12
s((F15.0
F7.0
F1.0
tp1051
g6
tp1052
F-7.5
s((F15.0
F5.0
F9.0
tp1053
I00
tp1054
F0.0
s((F17.0
F6.0
F-2.0
tp1055
g6
tp1056
F-8.5
s((F10.0
F14.0
F5.0
tp1057
I00
tp1058
F0.0
s((F13.0
F9.0
F6.0
tp1059
I01
tp1060
F0.0
s((F9.0
F12.0
F9.0
tp1061
I00
tp1062
F-0.21738103543804316
s((F11.0
F15.0
F8.0
tp1063
g6
tp1064
F-10.45
s((F10.0
F12.0
F7.0
tp1065
I01
tp1066
F-0.00012872500000000003
s((F8.0
F15.0
F7.0
tp1067
I01
tp1068
F-0.06138947500000003
s((F9.0
F12.0
F10.0
tp1069
I01
tp1070
F-0.0018360250000000005
s((F19.0
F11.0
F10.0
tp1071
I01
tp1072
F0.0
s((F7.0
F14.0
F8.0
tp1073
I01
tp1074
F-1.0639766844583
s((F7.0
F16.0
F5.0
tp1075
I00
tp1076
F0.0
s((F7.0
F11.0
F10.0
tp1077
I01
tp1078
F13.654611694658144
s((F11.0
F15.0
F6.0
tp1079
I00
tp1080
F0.0
s((F15.0
F16.0
F8.0
tp1081
I01
tp1082
F0.0
s((F16.0
F6.0
F10.0
tp1083
I01
tp1084
F2.4028871457646973e-08
s((F5.0
F13.0
F5.0
tp1085
I00
tp1086
F0.0
s((F6.0
F18.0
F7.0
tp1087
I01
tp1088
F0.0
s((F15.0
F9.0
F9.0
tp1089
I00
tp1090
F0.0
s((F7.0
F11.0
F1.0
tp1091
I00
tp1092
F0.0
s((F16.0
F9.0
F10.0
tp1093
I00
tp1094
F0.0
s((F10.0
F15.0
F3.0
tp1095
I00
tp1096
F0.0
s((F9.0
F10.0
F5.0
tp1097
I01
tp1098
F13.65532852846177
s((F10.0
F17.0
F7.0
tp1099
I00
tp1100
F0.0
s((F7.0
F15.0
F6.0
tp1101
I00
tp1102
F0.0
s((F3.0
F11.0
F5.0
tp1103
I01
tp1104
F0.0006643999210019035
s((F4.0
F9.0
F3.0
tp1105
g6
tp1106
F-2.0
s((F17.0
F6.0
F-1.0
tp1107
g6
tp1108
F-8.5
s((F14.0
F11.0
F7.0
tp1109
I01
tp1110
F0.0
s((F12.0
F14.0
F9.0
tp1111
I00
tp1112
F-0.2630632950000001
s((F10.0
F9.0
F4.0
tp1113
I00
tp1114
F0.0
s((F9.0
F8.0
F10.0
tp1115
I01
tp1116
F0.0
s((F16.0
F14.0
F7.0
tp1117
I00
tp1118
F0.0
s((F7.0
F11.0
F6.0
tp1119
I01
tp1120
F1.1878482768827903
s((F17.0
F9.0
F0.0
tp1121
I00
tp1122
F0.0
s((F9.0
F13.0
F8.0
tp1123
I01
tp1124
F-0.2604282638442877
s((F15.0
F8.0
F7.0
tp1125
I00
tp1126
F0.0
s((F16.0
F9.0
F9.0
tp1127
I01
tp1128
F0.0
s((F14.0
F9.0
F8.0
tp1129
I01
tp1130
F0.010281562140981356
s((F14.0
F7.0
F9.0
tp1131
I01
tp1132
F0.0
s((F12.0
F18.0
F10.0
tp1133
g6
tp1134
F-16.259999999999998
s((F6.0
F13.0
F7.0
tp1135
I01
tp1136
F-0.47500000000000003
s((F9.0
F14.0
F10.0
tp1137
g6
tp1138
F-25.628975550000003
s((F20.0
F9.0
F0.0
tp1139
I00
tp1140
F0.00018809738389674883
s((F18.0
F6.0
F10.0
tp1141
I01
tp1142
F0.0
s((F13.0
F17.0
F9.0
tp1143
I01
tp1144
F-0.6000000000000001
s((F10.0
F8.0
F10.0
tp1145
I01
tp1146
F2.5849910917652714
s((F7.0
F8.0
F10.0
tp1147
I01
tp1148
F8.19356620606745
s((F5.0
F13.0
F1.0
tp1149
g6
tp1150
F-2.5
s((F8.0
F10.0
F3.0
tp1151
I01
tp1152
F3.0877568598717415
s((F8.0
F17.0
F5.0
tp1153
I01
tp1154
F0.0
s((F1.0
F10.0
F4.0
tp1155
I00
tp1156
F0.0
s((F12.0
F9.0
F7.0
tp1157
I01
tp1158
F0.0
s((F18.0
F11.0
F3.0
tp1159
I00
tp1160
F6.818953616190149e-05
s((F13.0
F14.0
F9.0
tp1161
I00
tp1162
F-1.5336600000000002
s((F9.0
F10.0
F6.0
tp1163
I01
tp1164
F7.455464118279986
s((F13.0
F17.0
F10.0
tp1165
g6
tp1166
F-6.5
s((F6.0
F11.0
F8.0
tp1167
I01
tp1168
F0.0
s((F11.0
F17.0
F10.0
tp1169
g6
tp1170
F-28.693670500000003
s((F18.0
F15.0
F10.0
tp1171
I00
tp1172
F0.0
s((F19.0
F12.0
F2.0
tp1173
I01
tp1174
F0.0
s((F7.0
F18.0
F7.0
tp1175
g6
tp1176
F-6.65
s((F15.0
F16.0
F7.0
tp1177
I01
tp1178
F0.0
s((F20.0
F13.0
F0.0
tp1179
I00
tp1180
F0.0
s((F10.0
F14.0
F9.0
tp1181
I01
tp1182
F-0.5340100000000001
s((F14.0
F8.0
F9.0
tp1183
I00
tp1184
F3.23418952921948e-07
s((F9.0
F14.0
F8.0
tp1185
I01
tp1186
F-0.70422293995
s((F8.0
F13.0
F10.0
tp1187
I00
tp1188
F-2.748459231624241
s((F7.0
F12.0
F10.0
tp1189
I01
tp1190
F-0.06775
s((F6.0
F12.0
F5.0
tp1191
I01
tp1192
F0.0
s((F10.0
F12.0
F9.0
tp1193
I00
tp1194
F-0.1631643198122411
s((F13.0
F11.0
F8.0
tp1195
I00
tp1196
F0.0
s((F6.0
F11.0
F7.0
tp1197
I00
tp1198
F0.0
s((F5.0
F9.0
F9.0
tp1199
g6
tp1200
F-4.75
s((F4.0
F10.0
F10.0
tp1201
I01
tp1202
F10.053470009447878
s((F17.0
F8.0
F3.0
tp1203
I00
tp1204
F0.0
s((F16.0
F12.0
F5.0
tp1205
I01
tp1206
F0.0
s((F8.0
F15.0
F7.0
tp1207
g6
tp1208
F-4.0
s((F8.0
F13.0
F7.0
tp1209
I00
tp1210
F-0.9136527717549502
s((F9.0
F14.0
F4.0
tp1211
I00
tp1212
F0.0
s((F6.0
F13.0
F10.0
tp1213
I01
tp1214
F-3.2091077995000004
s((F10.0
F14.0
F10.0
tp1215
I00
tp1216
F-0.9622748351844992
s((F9.0
F11.0
F8.0
tp1217
I01
tp1218
F1.0828164294467713
s((F6.0
F15.0
F7.0
tp1219
I01
tp1220
F-2.1411987775
s((F18.0
F10.0
F6.0
tp1221
I01
tp1222
F0.0
s((F7.0
F12.0
F9.0
tp1223
I00
tp1224
F-0.033670791936999254
s((F17.0
F11.0
F4.0
tp1225
I00
tp1226
F1.135114363580263e-09
s((F5.0
F10.0
F8.0
tp1227
I00
tp1228
F0.0
s((F19.0
F13.0
F7.0
tp1229
I00
tp1230
F0.0
s((F17.0
F12.0
F3.0
tp1231
I00
tp1232
F0.0
s((F16.0
F12.0
F6.0
tp1233
I00
tp1234
F0.0
s((F12.0
F14.0
F9.0
tp1235
g6
tp1236
F-11.4
s((F13.0
F11.0
F7.0
tp1237
I01
tp1238
F0.0
s((F18.0
F10.0
F5.0
tp1239
I01
tp1240
F0.0
s((F11.0
F9.0
F3.0
tp1241
I01
tp1242
F12.68042302013019
s((F8.0
F13.0
F10.0
tp1243
g6
tp1244
F-4.0
s((F8.0
F11.0
F6.0
tp1245
I01
tp1246
F8.952662053680491
s((F12.0
F9.0
F6.0
tp1247
I01
tp1248
F2.7536735029540056e-05
s((F19.0
F9.0
F3.0
tp1249
I01
tp1250
F0.0004498891214179908
s((F18.0
F9.0
F9.0
tp1251
I01
tp1252
F0.0
s((F16.0
F13.0
F9.0
tp1253
I01
tp1254
F0.0
s((F16.0
F11.0
F5.0
tp1255
I01
tp1256
F0.0
s((F11.0
F14.0
F8.0
tp1257
I00
tp1258
F-1.9178218278494998
s((F10.0
F11.0
F10.0
tp1259
I00
tp1260
F0.008788991823616287
s((F16.0
F15.0
F9.0
tp1261
I00
tp1262
F0.0
s((F8.0
F13.0
F7.0
tp1263
I01
tp1264
F-0.814964224496365
s((F8.0
F13.0
F5.0
tp1265
I00
tp1266
F0.5773193623960436
s((F13.0
F18.0
F10.0
tp1267
g6
tp1268
F-12.350000000000001
s((F17.0
F9.0
F-1.0
tp1269
I00
tp1270
F-5.29208
s((F18.0
F13.0
F6.0
tp1271
I01
tp1272
F0.0
s((F13.0
F19.0
F8.0
tp1273
I00
tp1274
F0.0
s((F13.0
F18.0
F9.0
tp1275
I00
tp1276
F-1.6260000000000003
s((F11.0
F18.0
F6.0
tp1277
I00
tp1278
F0.0
s((F10.0
F10.0
F8.0
tp1279
I01
tp1280
F1.7930126271140223
s((F14.0
F11.0
F3.0
tp1281
I00
tp1282
F0.0
s((F17.0
F13.0
F9.0
tp1283
I01
tp1284
F0.0
s((F10.0
F18.0
F9.0
tp1285
I00
tp1286
F0.0
s((F17.0
F12.0
F8.0
tp1287
I01
tp1288
F0.0
s((F15.0
F12.0
F8.0
tp1289
I01
tp1290
F0.0
s((F14.0
F11.0
F10.0
tp1291
I00
tp1292
F0.0
s((F18.0
F13.0
F10.0
tp1293
I00
tp1294
F0.0
s((F14.0
F9.0
F4.0
tp1295
I01
tp1296
F0.008350164094375332
s((F14.0
F6.0
F10.0
tp1297
I01
tp1298
F1.0741547512969125e-06
s((F9.0
F12.0
F5.0
tp1299
I01
tp1300
F0.0
s((F6.0
F15.0
F6.0
tp1301
I01
tp1302
F-3.1809470195500005
s((F19.0
F9.0
F6.0
tp1303
I00
tp1304
F0.00031303281648154614
s((F8.0
F12.0
F8.0
tp1305
I00
tp1306
F-0.1655520271347648
s((F17.0
F9.0
F2.0
tp1307
I01
tp1308
F0.0015097124131161785
s((F16.0
F8.0
F5.0
tp1309
I00
tp1310
F0.0
s((F12.0
F11.0
F10.0
tp1311
I00
tp1312
F-1.371946846448136e-06
s((F7.0
F13.0
F4.0
tp1313
I01
tp1314
F0.0
s((F16.0
F11.0
F10.0
tp1315
I01
tp1316
F0.0
s((F17.0
F5.0
F-1.0
tp1317
g6
tp1318
F-8.5
s((F14.0
F16.0
F10.0
tp1319
I00
tp1320
F-0.04374000000000001
s((F9.0
F16.0
F7.0
tp1321
I00
tp1322
F-0.32400000000000007
s((F16.0
F14.0
F8.0
tp1323
I01
tp1324
F0.0
s((F14.0
F18.0
F9.0
tp1325
I01
tp1326
F-0.65
s((F14.0
F11.0
F9.0
tp1327
I01
tp1328
F0.0
s((F6.0
F9.0
F1.0
tp1329
I01
tp1330
F-0.25
s((F18.0
F12.0
F4.0
tp1331
I01
tp1332
F0.0
s((F16.0
F7.0
F1.0
tp1333
g6
tp1334
F-8.0
s((F19.0
F14.0
F5.0
tp1335
I00
tp1336
F0.0
s((F13.0
F9.0
F9.0
tp1337
I00
tp1338
F1.1152377686963726e-06
s((F14.0
F9.0
F7.0
tp1339
I00
tp1340
F0.0
s((F13.0
F8.0
F8.0
tp1341
I00
tp1342
F0.0
s((F12.0
F15.0
F6.0
tp1343
I01
tp1344
F0.0
s((F8.0
F7.0
F1.0
tp1345
g6
tp1346
F-4.0
s((F19.0
F10.0
F-1.0
tp1347
I00
tp1348
F0.0014501512508763995
s((F11.0
F10.0
F4.0
tp1349
I00
tp1350
F9.765602104016564
s((F17.0
F7.0
F1.0
tp1351
I00
tp1352
F0.0
s((F19.0
F11.0
F5.0
tp1353
I00
tp1354
F3.3375987211433643e-07
s((F17.0
F13.0
F10.0
tp1355
I01
tp1356
F0.0
s((F16.0
F10.0
F4.0
tp1357
I00
tp1358
F0.0001757964806865526
s((F11.0
F15.0
F9.0
tp1359
I01
tp1360
F0.0
s((F8.0
F14.0
F7.0
tp1361
g6
tp1362
F-18.74236
s((F13.0
F11.0
F2.0
tp1363
I01
tp1364
F0.0
s((F14.0
F18.0
F10.0
tp1365
I00
tp1366
F-0.65
s((F7.0
F14.0
F7.0
tp1367
I01
tp1368
F-2.0742624093861215
s((F12.0
F12.0
F8.0
tp1369
I00
tp1370
F-0.010748837595133278
s((F16.0
F8.0
F1.0
tp1371
g6
tp1372
F-8.0
s((F17.0
F9.0
F6.0
tp1373
I00
tp1374
F6.569125166576857e-05
s((F9.0
F12.0
F2.0
tp1375
I01
tp1376
F10.350684793179884
s((F18.0
F11.0
F8.0
tp1377
I00
tp1378
F0.0
s((F18.0
F10.0
F-1.0
tp1379
I00
tp1380
F0.0
s((F19.0
F11.0
F2.0
tp1381
I01
tp1382
F0.0
s((F17.0
F9.0
F5.0
tp1383
I01
tp1384
F0.0008603882722863279
s((F11.0
F9.0
F10.0
tp1385
I00
tp1386
F5.769895830056528
s((F20.0
F11.0
F3.0
tp1387
I00
tp1388
F0.00012333386874422418
s((F13.0
F15.0
F6.0
tp1389
I00
tp1390
F0.0
s((F11.0
F7.0
F6.0
tp1391
I00
tp1392
F0.0
s((F4.0
F11.0
F1.0
tp1393
I00
tp1394
F0.0
s((F7.0
F9.0
F1.0
tp1395
I00
tp1396
F0.0
s((F20.0
F11.0
F6.0
tp1397
I01
tp1398
F0.0
s((F9.0
F8.0
F9.0
tp1399
I01
tp1400
F0.0
s((F16.0
F13.0
F8.0
tp1401
I01
tp1402
F0.0
s((F18.0
F14.0
F5.0
tp1403
I00
tp1404
F0.0
s((F14.0
F10.0
F7.0
tp1405
I01
tp1406
F0.0
s((F9.0
F13.0
F3.0
tp1407
I00
tp1408
F13.498961012644706
s((F20.0
F14.0
F6.0
tp1409
I00
tp1410
F0.0
s((F18.0
F12.0
F7.0
tp1411
I01
tp1412
F0.0
s((F16.0
F15.0
F7.0
tp1413
I01
tp1414
F0.0
s((F0.0
F10.0
F9.0
tp1415
I00
tp1416
F0.0
s((F13.0
F12.0
F4.0
tp1417
I01
tp1418
F0.0
s((F17.0
F11.0
F1.0
tp1419
I00
tp1420
F8.608586116925803e-06
s((F11.0
F19.0
F7.0
tp1421
I00
tp1422
F0.0
s((F11.0
F15.0
F10.0
tp1423
I01
tp1424
F-1.045
s((F10.0
F18.0
F10.0
tp1425
g6
tp1426
F-5.0
s((F15.0
F10.0
F8.0
tp1427
I00
tp1428
F0.0
s((F7.0
F13.0
F5.0
tp1429
I01
tp1430
F0.0
s((F17.0
F14.0
F10.0
tp1431
I01
tp1432
F0.0
s((F2.0
F11.0
F4.0
tp1433
I00
tp1434
F0.0
s((F20.0
F10.0
F6.0
tp1435
I01
tp1436
F0.0
s((F19.0
F13.0
F9.0
tp1437
I00
tp1438
F0.0
s((F13.0
F13.0
F5.0
tp1439
I00
tp1440
F0.0
s((F16.0
F13.0
F4.0
tp1441
I00
tp1442
F0.0
s((F6.0
F10.0
F8.0
tp1443
I00
tp1444
F0.0
s((F7.0
F11.0
F8.0
tp1445
I00
tp1446
F0.0
s((F17.0
F12.0
F6.0
tp1447
I00
tp1448
F0.0
s((F8.0
F10.0
F10.0
tp1449
I00
tp1450
F0.0059187684845857895
s((F18.0
F10.0
F6.0
tp1451
I00
tp1452
F5.155724060615711e-05
s((F2.0
F12.0
F7.0
tp1453
I00
tp1454
F79.34362124249375
s((F17.0
F10.0
F5.0
tp1455
I01
tp1456
F0.0
s((F12.0
F9.0
F8.0
tp1457
I00
tp1458
F0.0
s((F11.0
F11.0
F5.0
tp1459
I01
tp1460
F0.0
s((F7.0
F13.0
F6.0
tp1461
I00
tp1462
F0.0
s((F17.0
F14.0
F9.0
tp1463
I00
tp1464
F0.0
s((F13.0
F12.0
F3.0
tp1465
I01
tp1466
F0.0
s((F15.0
F9.0
F1.0
tp1467
g6
tp1468
F-7.5
s((F7.0
F18.0
F10.0
tp1469
I01
tp1470
F-0.35000000000000003
s((F18.0
F9.0
F4.0
tp1471
I00
tp1472
F0.00021378479339211596
s((F15.0
F7.0
F9.0
tp1473
I00
tp1474
F0.0
s((F18.0
F15.0
F7.0
tp1475
I01
tp1476
F0.0
s((F14.0
F11.0
F5.0
tp1477
I00
tp1478
F0.0
s((F12.0
F14.0
F7.0
tp1479
I01
tp1480
F0.0
s((F7.0
F11.0
F3.0
tp1481
I00
tp1482
F0.17086881898478923
s((F8.0
F17.0
F9.0
tp1483
g6
tp1484
F-7.6
s((F8.0
F18.0
F10.0
tp1485
g6
tp1486
F-13.756
s((F16.0
F9.0
F7.0
tp1487
I00
tp1488
F0.0
s((F7.0
F18.0
F6.0
tp1489
I00
tp1490
F0.0
s((F13.0
F17.0
F6.0
tp1491
I00
tp1492
F0.0
s((F9.0
F11.0
F3.0
tp1493
I01
tp1494
F13.655482635206472
s((F3.0
F13.0
F7.0
tp1495
g6
tp1496
F-1.5
s((F7.0
F15.0
F5.0
tp1497
I00
tp1498
F-0.05585377750000001
s((F14.0
F12.0
F8.0
tp1499
I00
tp1500
F0.0
s((F14.0
F13.0
F9.0
tp1501
I00
tp1502
F0.0
s((F15.0
F12.0
F4.0
tp1503
I01
tp1504
F0.0
s((F11.0
F14.0
F6.0
tp1505
I00
tp1506
F0.0
s((F8.0
F17.0
F8.0
tp1507
I00
tp1508
F0.0
s((F6.0
F15.0
F8.0
tp1509
I00
tp1510
F-7.684207882936226
s((F19.0
F9.0
F10.0
tp1511
I00
tp1512
F0.0
s((F8.0
F13.0
F2.0
tp1513
I00
tp1514
F6.768136690069074
s((F7.0
F17.0
F9.0
tp1515
I01
tp1516
F-0.0475
s((F12.0
F19.0
F9.0
tp1517
g6
tp1518
F-11.4
s((F17.0
F10.0
F6.0
tp1519
I01
tp1520
F0.0
s((F8.0
F14.0
F7.0
tp1521
I01
tp1522
F-0.6982357814645547
s((F15.0
F10.0
F7.0
tp1523
I00
tp1524
F0.0
s((F7.0
F18.0
F9.0
tp1525
I01
tp1526
F0.0
s((F17.0
F15.0
F8.0
tp1527
I01
tp1528
F0.0
s((F15.0
F11.0
F9.0
tp1529
I01
tp1530
F0.0
s((F16.0
F10.0
F3.0
tp1531
I00
tp1532
F0.00023440456623390085
s((F20.0
F10.0
F7.0
tp1533
I01
tp1534
F0.0
s((F15.0
F12.0
F3.0
tp1535
I00
tp1536
F0.0
s((F16.0
F5.0
F2.0
tp1537
I00
tp1538
F0.0
s((F20.0
F12.0
F8.0
tp1539
I00
tp1540
F0.0
s((F16.0
F4.0
F-1.0
tp1541
g6
tp1542
F-21.68
s((F8.0
F10.0
F8.0
tp1543
I01
tp1544
F1.9899942457348583
s((F19.0
F12.0
F9.0
tp1545
I00
tp1546
F0.0
s((F19.0
F15.0
F10.0
tp1547
I00
tp1548
F0.0
s((F6.0
F14.0
F8.0
tp1549
I00
tp1550
F-7.776663396762384
s((F6.0
F13.0
F2.0
tp1551
I00
tp1552
F0.20645544622305817
s((F5.0
F12.0
F8.0
tp1553
I00
tp1554
F0.0
s((F6.0
F12.0
F2.0
tp1555
I00
tp1556
F0.003509777748986206
s((F15.0
F11.0
F5.0
tp1557
I00
tp1558
F0.0
s((F10.0
F5.0
F4.0
tp1559
I00
tp1560
F0.0
s((F7.0
F19.0
F8.0
tp1561
g6
tp1562
F-6.65
s((F16.0
F9.0
F1.0
tp1563
I00
tp1564
F-3.859280000000001
s((F15.0
F12.0
F7.0
tp1565
I01
tp1566
F0.0
s((F2.0
F13.0
F7.0
tp1567
I00
tp1568
F66.63856594024533
s((F13.0
F14.0
F6.0
tp1569
I00
tp1570
F0.0
s((F20.0
F10.0
F4.0
tp1571
I00
tp1572
F0.0002239403771731691
s((F19.0
F12.0
F5.0
tp1573
I01
tp1574
F0.0
s((F18.0
F8.0
F5.0
tp1575
I01
tp1576
F0.0
s((F19.0
F7.0
F-1.0
tp1577
I01
tp1578
F1.5663865813231674e-10
s((F20.0
F9.0
F8.0
tp1579
I01
tp1580
F4.072331463683962e-05
s((F17.0
F13.0
F7.0
tp1581
I00
tp1582
F0.0
s((F14.0
F7.0
F1.0
tp1583
g6
tp1584
F-7.0
s((F20.0
F13.0
F2.0
tp1585
I00
tp1586
F0.0
s((F11.0
F17.0
F8.0
tp1587
I00
tp1588
F-1.4905
s((F15.0
F8.0
F9.0
tp1589
I01
tp1590
F4.6052761401499554e-07
s((F15.0
F11.0
F10.0
tp1591
I01
tp1592
F-0.0009405
s((F5.0
F10.0
F1.0
tp1593
I00
tp1594
F0.0
s((F9.0
F18.0
F10.0
tp1595
g6
tp1596
F-12.195
s((F8.0
F11.0
F4.0
tp1597
I01
tp1598
F13.963236783062978
s((F10.0
F10.0
F7.0
tp1599
I00
tp1600
F4.428787558279216
s((F6.0
F18.0
F10.0
tp1601
I01
tp1602
F-0.47500000000000003
s((F9.0
F14.0
F6.0
tp1603
I00
tp1604
F0.0
s((F19.0
F12.0
F-1.0
tp1605
I01
tp1606
F0.0
s((F0.0
F12.0
F7.0
tp1607
I01
tp1608
F99.9999999999995
s((F14.0
F12.0
F10.0
tp1609
I01
tp1610
F-0.009405
s((F4.0
F9.0
F2.0
tp1611
g6
tp1612
F-2.0
s((F5.0
F14.0
F8.0
tp1613
g6
tp1614
F-16.2830389975
s((F8.0
F12.0
F7.0
tp1615
I01
tp1616
F0.0
s((F6.0
F10.0
F9.0
tp1617
I00
tp1618
F0.0
s((F11.0
F13.0
F10.0
tp1619
I01
tp1620
F-4.519355000000001
s((F6.0
F16.0
F9.0
tp1621
I01
tp1622
F-0.6775000000000001
s((F9.0
F4.0
F3.0
tp1623
g6
tp1624
F-4.5
s((F12.0
F12.0
F5.0
tp1625
I01
tp1626
F0.0
s((F6.0
F14.0
F10.0
tp1627
g6
tp1628
F-8.129999999999999
s((F17.0
F15.0
F9.0
tp1629
I01
tp1630
F0.0
s((F12.0
F17.0
F5.0
tp1631
I00
tp1632
F0.0
s((F15.0
F13.0
F9.0
tp1633
I01
tp1634
F0.0
s((F8.0
F11.0
F3.0
tp1635
I00
tp1636
F7.766348820921992
s((F7.0
F14.0
F9.0
tp1637
I01
tp1638
F-2.7453639146565
s((F7.0
F15.0
F3.0
tp1639
I01
tp1640
F0.0
s((F14.0
F15.0
F8.0
tp1641
I01
tp1642
F-0.06337414432614509
s((F6.0
F11.0
F2.0
tp1643
I00
tp1644
F0.0
s((F16.0
F10.0
F1.0
tp1645
I00
tp1646
F0.0
s((F19.0
F12.0
F6.0
tp1647
I01
tp1648
F0.0
s((F14.0
F11.0
F2.0
tp1649
I00
tp1650
F1.1152377686963726e-07
s((F13.0
F15.0
F9.0
tp1651
g6
tp1652
F-12.350000000000001
s((F16.0
F17.0
F8.0
tp1653
I01
tp1654
F0.0
s((F11.0
F9.0
F1.0
tp1655
I01
tp1656
F0.0
s((F5.0
F13.0
F9.0
tp1657
I01
tp1658
F0.0
s((F10.0
F17.0
F8.0
tp1659
I00
tp1660
F0.0
s((F15.0
F8.0
F10.0
tp1661
I01
tp1662
F0.007367115943276046
s((F10.0
F16.0
F8.0
tp1663
I01
tp1664
F0.0
s((F9.0
F11.0
F2.0
tp1665
I01
tp1666
F13.658349699183047
s((F11.0
F14.0
F10.0
tp1667
g6
tp1668
F-31.324303450000002
s((F6.0
F11.0
F1.0
tp1669
I01
tp1670
F13.643339236488515
s((F13.0
F11.0
F9.0
tp1671
I00
tp1672
F0.0
s((F20.0
F11.0
F2.0
tp1673
I00
tp1674
F0.0001019420513625864
s((F16.0
F12.0
F3.0
tp1675
I00
tp1676
F0.0
s((F18.0
F13.0
F3.0
tp1677
I00
tp1678
F0.0
s((F17.0
F12.0
F5.0
tp1679
I01
tp1680
F0.0
s((F16.0
F7.0
F10.0
tp1681
g6
tp1682
F-8.0
s((F4.0
F13.0
F9.0
tp1683
g6
tp1684
F-5.42
s((F7.0
F13.0
F10.0
tp1685
g6
tp1686
F-3.5
s((F11.0
F12.0
F6.0
tp1687
I00
tp1688
F0.0
s((F10.0
F14.0
F3.0
tp1689
I00
tp1690
F0.0
s((F11.0
F13.0
F9.0
tp1691
I01
tp1692
F-3.371767280618989
s((F17.0
F11.0
F10.0
tp1693
I01
tp1694
F0.0
s((F13.0
F6.0
F10.0
tp1695
I00
tp1696
F0.0
s((F10.0
F14.0
F7.0
tp1697
g6
tp1698
F-26.085155
s((F18.0
F9.0
F1.0
tp1699
I00
tp1700
F0.00011625986242679786
s((F13.0
F12.0
F5.0
tp1701
I01
tp1702
F0.0
s((F13.0
F11.0
F10.0
tp1703
I01
tp1704
F-1.2872500000000004e-07
s((F1.0
F12.0
F10.0
tp1705
I01
tp1706
F0.0793642261089527
s((F9.0
F16.0
F5.0
tp1707
I01
tp1708
F0.0
s((F5.0
F12.0
F7.0
tp1709
I00
tp1710
F0.0
s((F10.0
F8.0
F10.0
tp1711
g6
tp1712
F-5.0
s((F9.0
F16.0
F6.0
tp1713
I00
tp1714
F0.0
s((F11.0
F10.0
F5.0
tp1715
I00
tp1716
F13.650549779818824
s((F12.0
F19.0
F8.0
tp1717
g6
tp1718
F-11.4
s((F5.0
F14.0
F7.0
tp1719
g6
tp1720
F-22.264525271712195
s((F7.0
F16.0
F10.0
tp1721
g6
tp1722
F-12.0365
s((F5.0
F14.0
F9.0
tp1723
g6
tp1724
F-21.247634117575025
s((F16.0
F8.0
F8.0
tp1725
I00
tp1726
F0.0
s((F7.0
F9.0
F9.0
tp1727
I00
tp1728
F0.0
s((F14.0
F5.0
F8.0
tp1729
I01
tp1730
F0.0
s((F18.0
F5.0
F-2.0
tp1731
I01
tp1732
F0.0
s((F12.0
F7.0
F5.0
tp1733
I01
tp1734
F0.0
s((F11.0
F14.0
F3.0
tp1735
I00
tp1736
F0.0
s((F12.0
F8.0
F1.0
tp1737
g6
tp1738
F-6.0
s((F15.0
F5.0
F10.0
tp1739
I01
tp1740
F0.0
s((F17.0
F12.0
F2.0
tp1741
I01
tp1742
F0.0
s((F10.0
F14.0
F6.0
tp1743
I01
tp1744
F0.0
s((F8.0
F16.0
F7.0
tp1745
I00
tp1746
F0.0
s((F18.0
F10.0
F8.0
tp1747
I01
tp1748
F0.0
s((F10.0
F12.0
F4.0
tp1749
I00
tp1750
F13.66439053418196
s((F7.0
F17.0
F8.0
tp1751
g6
tp1752
F-12.0365
s((F10.0
F13.0
F5.0
tp1753
I00
tp1754
F0.0
s((F17.0
F11.0
F9.0
tp1755
I01
tp1756
F0.0
s((F17.0
F4.0
F-1.0
tp1757
g6
tp1758
F-8.5
s((F20.0
F11.0
F1.0
tp1759
I00
tp1760
F0.0003596548557184573
s((F13.0
F12.0
F10.0
tp1761
I01
tp1762
F-0.189145
s((F14.0
F17.0
F10.0
tp1763
I00
tp1764
F-0.06000000000000001
s((F12.0
F15.0
F8.0
tp1765
I00
tp1766
F-0.3247695000000001
s((F20.0
F12.0
F6.0
tp1767
I00
tp1768
F0.0
s((F4.0
F12.0
F5.0
tp1769
I00
tp1770
F0.9009828550015446
s((F15.0
F9.0
F10.0
tp1771
I01
tp1772
F0.009350142853053231
s((F9.0
F16.0
F10.0
tp1773
I01
tp1774
F-0.0665
s((F16.0
F14.0
F6.0
tp1775
I01
tp1776
F0.0
s((F7.0
F10.0
F3.0
tp1777
I01
tp1778
F0.28454788745263776
s((F18.0
F9.0
F7.0
tp1779
I00
tp1780
F6.188452246087027e-05
s((F8.0
F14.0
F10.0
tp1781
I00
tp1782
F-4.3674765498350006
s((F14.0
F9.0
F9.0
tp1783
I00
tp1784
F0.0
s((F1.0
F11.0
F9.0
tp1785
I00
tp1786
F9.460468683344807
s((F19.0
F10.0
F3.0
tp1787
I00
tp1788
F0.000798301398188007
s((F20.0
F10.0
F3.0
tp1789
I00
tp1790
F0.0004141245322609056
s((F5.0
F13.0
F9.0
tp1791
g6
tp1792
F-13.0425775
s((F13.0
F15.0
F9.0
tp1793
I00
tp1794
F0.0
s((F17.0
F5.0
F1.0
tp1795
I01
tp1796
F0.0
s((F12.0
F14.0
F6.0
tp1797
I01
tp1798
F0.0
s((F20.0
F13.0
F9.0
tp1799
I00
tp1800
F0.0
s((F11.0
F6.0
F10.0
tp1801
I01
tp1802
F0.0
s((F15.0
F5.0
F9.0
tp1803
I01
tp1804
F0.0
s((F4.0
F12.0
F6.0
tp1805
I01
tp1806
F0.0
s((F7.0
F15.0
F10.0
tp1807
g6
tp1808
F-18.259608500000002
s((F16.0
F7.0
F4.0
tp1809
I01
tp1810
F0.0
s((F10.0
F14.0
F5.0
tp1811
I01
tp1812
F0.0
s((F19.0
F11.0
F1.0
tp1813
I00
tp1814
F0.0006470855356752582
s((F8.0
F15.0
F7.0
tp1815
I00
tp1816
F-0.16672531318442985
s((F20.0
F9.0
F7.0
tp1817
I01
tp1818
F9.295845755006109e-05
s((F20.0
F10.0
F0.0
tp1819
I01
tp1820
F1.6360991339802569e-06
s((F-1.0
F12.0
F10.0
tp1821
g259
tp1822
F99.99999999999996
s((F0.0
F10.0
F3.0
tp1823
I00
tp1824
F0.0
s((F19.0
F11.0
F10.0
tp1825
I00
tp1826
F0.0
s((F8.0
F15.0
F10.0
tp1827
I00
tp1828
F-0.7631031235838787
s((F14.0
F8.0
F7.0
tp1829
I00
tp1830
F0.0
s((F7.0
F11.0
F10.0
tp1831
I00
tp1832
F-0.0010213095081111389
s((F9.0
F15.0
F9.0
tp1833
I01
tp1834
F-0.36000000000000004
s((F10.0
F13.0
F7.0
tp1835
I01
tp1836
F-0.824414948265217
s((F9.0
F13.0
F10.0
tp1837
g6
tp1838
F-4.5
s((F9.0
F17.0
F7.0
tp1839
I00
tp1840
F0.0
s((F16.0
F6.0
F10.0
tp1841
I00
tp1842
F0.0
s((F13.0
F9.0
F2.0
tp1843
I01
tp1844
F1.1152377686963726e-06
s((F17.0
F7.0
F2.0
tp1845
I01
tp1846
F0.0
s((F15.0
F9.0
F9.0
tp1847
I01
tp1848
F0.0
s((F12.0
F17.0
F9.0
tp1849
g6
tp1850
F-11.4
s((F7.0
F11.0
F1.0
tp1851
I01
tp1852
F13.658452398080422
s((F16.0
F9.0
F10.0
tp1853
I01
tp1854
F0.0012284757057505953
s((F9.0
F10.0
F5.0
tp1855
I00
tp1856
F0.0
s((F14.0
F12.0
F3.0
tp1857
I00
tp1858
F0.0
s((F8.0
F10.0
F3.0
tp1859
I00
tp1860
F0.0
s((F11.0
F7.0
F8.0
tp1861
I01
tp1862
F0.0
s((F18.0
F15.0
F9.0
tp1863
I01
tp1864
F0.0
s((F14.0
F11.0
F7.0
tp1865
I00
tp1866
F0.0
s((F0.0
F13.0
F9.0
tp1867
I01
tp1868
F98.01172882209775
s((F12.0
F14.0
F9.0
tp1869
I01
tp1870
F-0.55
s((F15.0
F15.0
F10.0
tp1871
I01
tp1872
F-0.011400000000000004
s((F11.0
F8.0
F8.0
tp1873
I00
tp1874
F0.0
s((F20.0
F14.0
F0.0
tp1875
I01
tp1876
F0.0
s((F16.0
F14.0
F7.0
tp1877
I01
tp1878
F0.0
s((F8.0
F11.0
F10.0
tp1879
I00
tp1880
F-0.0041811586667605755
s((F8.0
F17.0
F6.0
tp1881
I01
tp1882
F0.0
s((F9.0
F13.0
F8.0
tp1883
I00
tp1884
F-0.7514078551192931
s((F16.0
F9.0
F9.0
tp1885
I00
tp1886
F0.0
s((F19.0
F9.0
F-1.0
tp1887
I01
tp1888
F0.0007375698333017514
s((F14.0
F7.0
F9.0
tp1889
I00
tp1890
F0.0
s((F14.0
F15.0
F7.0
tp1891
I01
tp1892
F-0.054049634411024325
s((F10.0
F17.0
F6.0
tp1893
I00
tp1894
F0.0
s((F6.0
F13.0
F7.0
tp1895
I00
tp1896
F-8.946527497205052e-07
s((F7.0
F12.0
F4.0
tp1897
I00
tp1898
F14.6518830844842
s((F7.0
F15.0
F7.0
tp1899
I00
tp1900
F-0.2776274937067278
s((F18.0
F7.0
F-1.0
tp1901
I01
tp1902
F2.755047030381974e-10
s((F20.0
F9.0
F0.0
tp1903
I01
tp1904
F7.265825777293063e-05
s((F12.0
F13.0
F10.0
tp1905
I00
tp1906
F-2.9651347817645326
s((F19.0
F13.0
F2.0
tp1907
I00
tp1908
F0.0
s((F16.0
F10.0
F1.0
tp1909
I01
tp1910
F5.742812249970853e-05
s((F11.0
F15.0
F5.0
tp1911
I00
tp1912
F0.0
s((F11.0
F14.0
F4.0
tp1913
I00
tp1914
F0.0
s((F12.0
F18.0
F9.0
tp1915
I00
tp1916
F-1.900855
s((F10.0
F8.0
F10.0
tp1917
I00
tp1918
F0.0
s((F6.0
F10.0
F2.0
tp1919
I01
tp1920
F-0.47500000000000003
s((F11.0
F8.0
F7.0
tp1921
I01
tp1922
F0.0
s((F9.0
F13.0
F4.0
tp1923
I01
tp1924
F0.0
s((F6.0
F15.0
F10.0
tp1925
I00
tp1926
F-11.675218118172456
s((F6.0
F16.0
F10.0
tp1927
I01
tp1928
F-1.08475
s((F10.0
F7.0
F10.0
tp1929
I01
tp1930
F0.0
s((F10.0
F12.0
F3.0
tp1931
I00
tp1932
F13.657947875976983
s((F3.0
F9.0
F1.0
tp1933
g6
tp1934
F-1.5
s((F2.0
F11.0
F10.0
tp1935
I00
tp1936
F0.0
s((F12.0
F10.0
F7.0
tp1937
I00
tp1938
F5.774537072990498
s((F12.0
F9.0
F7.0
tp1939
I00
tp1940
F0.0
s((F12.0
F10.0
F3.0
tp1941
I00
tp1942
F1.0687927487517532
s((F12.0
F13.0
F9.0
tp1943
I01
tp1944
F-1.153417941455
s((F19.0
F13.0
F0.0
tp1945
I01
tp1946
F0.0
s((F15.0
F14.0
F10.0
tp1947
I01
tp1948
F-0.006000000000000002
s((F18.0
F15.0
F10.0
tp1949
I01
tp1950
F0.0
s((F10.0
F19.0
F9.0
tp1951
g6
tp1952
F-5.0
s((F18.0
F8.0
F-2.0
tp1953
I01
tp1954
F0.0017810615884837407
s((F2.0
F11.0
F6.0
tp1955
I00
tp1956
F0.0
s((F15.0
F16.0
F7.0
tp1957
I00
tp1958
F0.0
s((F14.0
F6.0
F10.0
tp1959
g6
tp1960
F-7.0
s((F20.0
F13.0
F0.0
tp1961
I01
tp1962
F0.0
s((F17.0
F16.0
F8.0
tp1963
I01
tp1964
F0.0
s((F15.0
F11.0
F7.0
tp1965
I00
tp1966
F0.0
s((F5.0
F13.0
F8.0
tp1967
g6
tp1968
F-6.775
s((F14.0
F8.0
F9.0
tp1969
I01
tp1970
F0.0
s((F13.0
F11.0
F4.0
tp1971
I00
tp1972
F0.0
s((F15.0
F13.0
F8.0
tp1973
I01
tp1974
F0.0
s((F19.0
F9.0
F4.0
tp1975
I00
tp1976
F0.00029461111414368763
s((F8.0
F6.0
F4.0
tp1977
I01
tp1978
F0.0
s((F17.0
F12.0
F3.0
tp1979
I01
tp1980
F0.0
s((F13.0
F14.0
F8.0
tp1981
I00
tp1982
F-0.3003672840668074
s((F11.0
F7.0
F7.0
tp1983
I00
tp1984
F0.0
s((F16.0
F8.0
F3.0
tp1985
I00
tp1986
F0.0
s((F10.0
F12.0
F9.0
tp1987
I01
tp1988
F-0.0003488447500000001
s((F17.0
F14.0
F6.0
tp1989
I00
tp1990
F0.0
s((F4.0
F10.0
F10.0
tp1991
I00
tp1992
F0.08426783839014898
s((F10.0
F11.0
F9.0
tp1993
I01
tp1994
F-0.00012872500000000003
s((F18.0
F10.0
F5.0
tp1995
I00
tp1996
F0.00015744068898655537
s((F12.0
F8.0
F10.0
tp1997
I01
tp1998
F0.0035628785982791686
s((F4.0
F10.0
F9.0
tp1999
I01
tp2000
F0.0
s((F9.0
F14.0
F4.0
tp2001
I01
tp2002
F0.0
s((F17.0
F5.0
F-1.0
tp2003
I01
tp2004
F-0.8
s((F9.0
F13.0
F7.0
tp2005
I01
tp2006
F-1.2796020863912287
s((F19.0
F9.0
F0.0
tp2007
I01
tp2008
F0.0007731750049644159
s((F19.0
F8.0
F1.0
tp2009
I01
tp2010
F0.0011554777911752152
s((F14.0
F14.0
F5.0
tp2011
I00
tp2012
F0.0
s((F9.0
F11.0
F8.0
tp2013
I00
tp2014
F0.03145299005110881
s((F17.0
F10.0
F0.0
tp2015
I00
tp2016
F-0.8
s((F12.0
F13.0
F7.0
tp2017
g6
tp2018
F-6.0
s((F6.0
F15.0
F7.0
tp2019
I00
tp2020
F-5.026822775341225
s((F8.0
F13.0
F9.0
tp2021
I00
tp2022
F-0.19196135000000003
s((F16.0
F8.0
F4.0
tp2023
I01
tp2024
F0.0
s((F19.0
F13.0
F7.0
tp2025
I01
tp2026
F0.0
s((F10.0
F18.0
F10.0
tp2027
I01
tp2028
F-0.45
s((F4.0
F12.0
F10.0
tp2029
I01
tp2030
F-0.51585
s((F15.0
F15.0
F8.0
tp2031
I00
tp2032
F-0.02648436202693645
s((F0.0
F12.0
F5.0
tp2033
I01
tp2034
F99.99999999999996
s((F18.0
F13.0
F10.0
tp2035
I01
tp2036
F0.0
s((F7.0
F8.0
F1.0
tp2037
I00
tp2038
F0.0
s((F20.0
F12.0
F1.0
tp2039
I00
tp2040
F1.1520653006856196e-05
s((F16.0
F7.0
F0.0
tp2041
g6
tp2042
F-32.7608
s((F14.0
F15.0
F5.0
tp2043
I00
tp2044
F0.0
s((F9.0
F10.0
F2.0
tp2045
I00
tp2046
F5.286743821430245
s((F19.0
F10.0
F4.0
tp2047
I00
tp2048
F0.0006822835695497896
s((F18.0
F9.0
F9.0
tp2049
I00
tp2050
F0.0
s((F17.0
F11.0
F8.0
tp2051
I01
tp2052
F0.0
s((F16.0
F11.0
F5.0
tp2053
I00
tp2054
F1.1380367405585454e-10
s((F10.0
F11.0
F5.0
tp2055
I00
tp2056
F13.6557010316692
s((F11.0
F14.0
F8.0
tp2057
I01
tp2058
F0.0
s((F10.0
F11.0
F10.0
tp2059
I01
tp2060
F-6.775000000000002e-05
s((F17.0
F4.0
F-2.0
tp2061
g6
tp2062
F-8.5
s((F20.0
F12.0
F2.0
tp2063
I01
tp2064
F0.0
s((F15.0
F9.0
F7.0
tp2065
I00
tp2066
F0.0
s((F16.0
F7.0
F3.0
tp2067
I00
tp2068
F0.0
s((F14.0
F6.0
F9.0
tp2069
I01
tp2070
F0.0
s((F11.0
F10.0
F7.0
tp2071
I01
tp2072
F5.4661894275429
s((F10.0
F9.0
F8.0
tp2073
I00
tp2074
F0.0
s((F6.0
F13.0
F10.0
tp2075
I00
tp2076
F-13.495461246334095
s((F19.0
F10.0
F7.0
tp2077
I01
tp2078
F0.0
s((F11.0
F12.0
F5.0
tp2079
I01
tp2080
F0.0
s((F12.0
F16.0
F9.0
tp2081
g6
tp2082
F-20.634
s((F10.0
F10.0
F3.0
tp2083
I00
tp2084
F0.0
s((F11.0
F18.0
F6.0
tp2085
I01
tp2086
F0.0
s((F8.0
F18.0
F8.0
tp2087
I00
tp2088
F0.0
s((F11.0
F6.0
F5.0
tp2089
I01
tp2090
F0.0
s((F9.0
F11.0
F7.0
tp2091
I01
tp2092
F11.087548804628739
s((F10.0
F10.0
F8.0
tp2093
I00
tp2094
F2.8931724617011385
s((F10.0
F18.0
F9.0
tp2095
I01
tp2096
F-0.8550000000000001
s((F14.0
F11.0
F10.0
tp2097
I01
tp2098
F-0.010450000000000001
s((F16.0
F7.0
F-1.0
tp2099
g6
tp2100
F-27.512
s((F6.0
F7.0
F10.0
tp2101
I00
tp2102
F0.0
s((F14.0
F6.0
F10.0
tp2103
I00
tp2104
F0.0
s((F9.0
F12.0
F5.0
tp2105
I00
tp2106
F10.291096059372864
s((F4.0
F10.0
F9.0
tp2107
I00
tp2108
F0.0
s((F17.0
F9.0
F2.0
tp2109
I00
tp2110
F0.0
s((F12.0
F11.0
F10.0
tp2111
I01
tp2112
F-1.2872500000000003e-06
s((F7.0
F13.0
F4.0
tp2113
I00
tp2114
F0.0
s((F17.0
F16.0
F9.0
tp2115
I01
tp2116
F0.0
s((F18.0
F14.0
F6.0
tp2117
I01
tp2118
F0.0
s((F16.0
F14.0
F8.0
tp2119
I00
tp2120
F0.0
s((F5.0
F12.0
F5.0
tp2121
I00
tp2122
F0.29043340903369314
s((F14.0
F11.0
F9.0
tp2123
I00
tp2124
F0.0
s((F9.0
F13.0
F7.0
tp2125
I00
tp2126
F-0.35563196158092786
s((F6.0
F9.0
F1.0
tp2127
I00
tp2128
F0.0
s((F18.0
F12.0
F4.0
tp2129
I00
tp2130
F0.0
s((F16.0
F16.0
F7.0
tp2131
I00
tp2132
F0.0
s((F18.0
F13.0
F5.0
tp2133
I00
tp2134
F0.0
s((F2.0
F13.0
F10.0
tp2135
I00
tp2136
F-0.05
s((F13.0
F9.0
F9.0
tp2137
I01
tp2138
F0.0
s((F13.0
F8.0
F8.0
tp2139
I01
tp2140
F3.23418952921948e-06
s((F13.0
F13.0
F9.0
tp2141
g6
tp2142
F-6.5
s((F19.0
F10.0
F-1.0
tp2143
I01
tp2144
F2.159375086403881e-05
s((F11.0
F10.0
F4.0
tp2145
I01
tp2146
F13.588590559761322
s((F8.0
F10.0
F9.0
tp2147
I01
tp2148
F8.552391114936997
s((F17.0
F7.0
F1.0
tp2149
I01
tp2150
F0.0
s((F19.0
F11.0
F5.0
tp2151
I01
tp2152
F0.0
s((F17.0
F13.0
F10.0
tp2153
I00
tp2154
F0.0
s((F17.0
F5.0
F0.0
tp2155
I01
tp2156
F0.0
s((F7.0
F15.0
F6.0
tp2157
I01
tp2158
F-0.40508775585475
s((F19.0
F13.0
F10.0
tp2159
I01
tp2160
F0.0
s((F0.0
F11.0
F10.0
tp2161
I01
tp2162
F99.99999999999996
s((F3.0
F10.0
F9.0
tp2163
I01
tp2164
F0.0
s((F13.0
F12.0
F7.0
tp2165
I01
tp2166
F0.0
s((F12.0
F12.0
F5.0
tp2167
I00
tp2168
F0.2873315645189181
s((F6.0
F19.0
F10.0
tp2169
g6
tp2170
F-3.0
s((F11.0
F9.0
F8.0
tp2171
I01
tp2172
F0.0
s((F7.0
F11.0
F4.0
tp2173
I00
tp2174
F5.070991128573707
s((F12.0
F10.0
F8.0
tp2175
I01
tp2176
F0.0
s((F11.0
F11.0
F2.0
tp2177
I00
tp2178
F2.196559120374512
s((F18.0
F11.0
F8.0
tp2179
I01
tp2180
F0.0
s((F19.0
F11.0
F2.0
tp2181
I00
tp2182
F0.00037342706681713403
s((F12.0
F11.0
F7.0
tp2183
I00
tp2184
F1.1356922130465732
s((F15.0
F9.0
F2.0
tp2185
I01
tp2186
F0.0036621300628626226
s((F1.0
F13.0
F10.0
tp2187
I01
tp2188
F0.0
s((F16.0
F10.0
F5.0
tp2189
I00
tp2190
F0.0006353664961229019
s((F8.0
F13.0
F9.0
tp2191
I01
tp2192
F-0.006775000000000001
s((F11.0
F16.0
F10.0
tp2193
g6
tp2194
F-33.691873105
s((F8.0
F15.0
F8.0
tp2195
I01
tp2196
F-0.09241247500000002
s((F12.0
F12.0
F6.0
tp2197
I01
tp2198
F0.0
s((F7.0
F9.0
F1.0
tp2199
I01
tp2200
F0.0
s((F6.0
F18.0
F6.0
tp2201
I00
tp2202
F0.0
s((F13.0
F9.0
F10.0
tp2203
I01
tp2204
F0.04011009521521436
s((F12.0
F14.0
F4.0
tp2205
I00
tp2206
F0.0
s((F9.0
F16.0
F8.0
tp2207
I01
tp2208
F0.0
s((F19.0
F14.0
F6.0
tp2209
I00
tp2210
F0.0
s((F9.0
F13.0
F3.0
tp2211
I01
tp2212
F0.0
s((F16.0
F15.0
F7.0
tp2213
I00
tp2214
F0.0
s((F19.0
F11.0
F6.0
tp2215
I01
tp2216
F0.0
s((F8.0
F14.0
F6.0
tp2217
I00
tp2218
F0.0
s((F11.0
F15.0
F10.0
tp2219
I00
tp2220
F-0.34105596350228556
s((F15.0
F10.0
F8.0
tp2221
I01
tp2222
F0.0
s((F13.0
F16.0
F8.0
tp2223
I00
tp2224
F0.0
s((F13.0
F15.0
F7.0
tp2225
I00
tp2226
F-0.5709180447884938
s((F20.0
F10.0
F6.0
tp2227
I00
tp2228
F8.175962260453824e-05
s((F19.0
F13.0
F9.0
tp2229
I01
tp2230
F0.0
s((F7.0
F9.0
F2.0
tp2231
I00
tp2232
F0.0
s((F7.0
F14.0
F9.0
tp2233
g6
tp2234
F-18.259608500000002
s((F19.0
F14.0
F9.0
tp2235
I01
tp2236
F0.0
s((F20.0
F13.0
F4.0
tp2237
I00
tp2238
F0.0
s((F17.0
F12.0
F6.0
tp2239
I01
tp2240
F0.0
s((F9.0
F11.0
F3.0
tp2241
I00
tp2242
F8.519749698322325
s((F7.0
F17.0
F10.0
tp2243
I00
tp2244
F-0.2835000000000001
s((F2.0
F12.0
F7.0
tp2245
I01
tp2246
F50.68910758182013
s((F17.0
F10.0
F5.0
tp2247
I00
tp2248
F3.0458331123178768e-05
s((F5.0
F12.0
F9.0
tp2249
I01
tp2250
F0.0
s((F12.0
F9.0
F8.0
tp2251
I01
tp2252
F4.5670101865885154e-05
s((F10.0
F13.0
F3.0
tp2253
I01
tp2254
F0.0
s((F11.0
F12.0
F10.0
tp2255
I00
tp2256
F-1.2117226518460544
s((F12.0
F16.0
F9.0
tp2257
I00
tp2258
F-0.6005792348186725
s((F12.0
F14.0
F8.0
tp2259
g6
tp2260
F-16.259999999999998
s((F5.0
F18.0
F7.0
tp2261
g6
tp2262
F-4.75
s((F18.0
F9.0
F4.0
tp2263
I01
tp2264
F0.000659463710882167
s((F16.0
F5.0
F1.0
tp2265
I01
tp2266
F0.0
s((F8.0
F16.0
F8.0
tp2267
g6
tp2268
F-4.0
s((F5.0
F15.0
F7.0
tp2269
g6
tp2270
F-19.28080188625975
s((F15.0
F7.0
F9.0
tp2271
I01
tp2272
F0.0
s((F18.0
F15.0
F7.0
tp2273
I00
tp2274
F0.0
s((F20.0
F13.0
F3.0
tp2275
I01
tp2276
F0.0
s((F1.0
F12.0
F6.0
tp2277
I00
tp2278
F99.99999999999996
s((F11.0
F16.0
F7.0
tp2279
I01
tp2280
F0.0
s((F7.0
F11.0
F3.0
tp2281
I01
tp2282
F13.65610254671139
s((F16.0
F6.0
F9.0
tp2283
I00
tp2284
F0.0
s((F11.0
F16.0
F4.0
tp2285
I00
tp2286
F0.0
s((F11.0
F13.0
F8.0
tp2287
I01
tp2288
F-5.395036193404957
s((F11.0
F12.0
F9.0
tp2289
I01
tp2290
F-1.9719898574359507
s((F18.0
F14.0
F8.0
tp2291
I01
tp2292
F0.0
s((F12.0
F17.0
F7.0
tp2293
I00
tp2294
F-2.380780249361326e-15
s((F10.0
F11.0
F2.0
tp2295
I00
tp2296
F6.409854514986213
s((F19.0
F10.0
F10.0
tp2297
I00
tp2298
F0.0
s((F17.0
F13.0
F4.0
tp2299
I01
tp2300
F0.0
s((F2.0
F12.0
F8.0
tp2301
I01
tp2302
F3.7145751404439293
s((F11.0
F14.0
F6.0
tp2303
I01
tp2304
F0.0
s((F9.0
F14.0
F7.0
tp2305
I01
tp2306
F0.0
s((F18.0
F12.0
F3.0
tp2307
I00
tp2308
F0.0
s((F12.0
F6.0
F10.0
tp2309
I00
tp2310
F0.0
s((F16.0
F3.0
F10.0
tp2311
g6
tp2312
F-8.0
s((F20.0
F14.0
F9.0
tp2313
I00
tp2314
F0.0
s((F16.0
F16.0
F8.0
tp2315
I01
tp2316
F0.0
s((F7.0
F18.0
F9.0
tp2317
I00
tp2318
F0.0
s((F17.0
F15.0
F8.0
tp2319
I00
tp2320
F0.0
s((F8.0
F13.0
F10.0
tp2321
I01
tp2322
F-0.7195359618167928
s((F16.0
F11.0
F9.0
tp2323
I01
tp2324
F0.0
s((F16.0
F10.0
F3.0
tp2325
I01
tp2326
F0.0006778995645441024
s((F6.0
F11.0
F3.0
tp2327
I01
tp2328
F14.216867974736754
s((F16.0
F5.0
F2.0
tp2329
I01
tp2330
F0.0
s((F12.0
F13.0
F4.0
tp2331
I01
tp2332
F0.0
s((F11.0
F14.0
F7.0
tp2333
g6
tp2334
F-25.770745
s((F15.0
F13.0
F10.0
tp2335
I00
tp2336
F0.0
s((F15.0
F12.0
F7.0
tp2337
I00
tp2338
F0.0
s((F11.0
F9.0
F10.0
tp2339
g6
tp2340
F-5.5
s((F11.0
F18.0
F8.0
tp2341
I00
tp2342
F0.0
s((F4.0
F10.0
F7.0
tp2343
I01
tp2344
F0.0
s((F19.0
F12.0
F5.0
tp2345
I00
tp2346
F0.0
s((F18.0
F7.0
F2.0
tp2347
I00
tp2348
F0.0
s((F19.0
F7.0
F-1.0
tp2349
I00
tp2350
F0.0
s((F20.0
F12.0
F9.0
tp2351
I00
tp2352
F0.0
s((F17.0
F13.0
F7.0
tp2353
I01
tp2354
F0.0
s((F8.0
F12.0
F4.0
tp2355
I01
tp2356
F2.478234693935497
s((F19.0
F12.0
F8.0
tp2357
I00
tp2358
F0.0
s((F20.0
F13.0
F2.0
tp2359
I01
tp2360
F0.0
s((F1.0
F10.0
F10.0
tp2361
I00
tp2362
F0.0
s((F18.0
F12.0
F8.0
tp2363
I01
tp2364
F0.0
s((F15.0
F8.0
F9.0
tp2365
I00
tp2366
F0.000601415515200876
s((F15.0
F11.0
F10.0
tp2367
I00
tp2368
F0.0
s((F12.0
F10.0
F5.0
tp2369
I00
tp2370
F13.574275670317132
s((F9.0
F18.0
F9.0
tp2371
g6
tp2372
F-4.5
s((F10.0
F10.0
F7.0
tp2373
I01
tp2374
F2.146756875168994
s((F18.0
F6.0
F0.0
tp2375
I01
tp2376
F9.163597594040629e-11
s((F18.0
F7.0
F1.0
tp2377
I01
tp2378
F4.94179227818642e-10
s((F6.0
F18.0
F10.0
tp2379
I00
tp2380
F-0.25
s((F9.0
F15.0
F5.0
tp2381
I00
tp2382
F0.0
s((F1.0
F13.0
F7.0
tp2383
I00
tp2384
F97.29390527958779
s((F16.0
F13.0
F5.0
tp2385
I01
tp2386
F0.0
s((F9.0
F14.0
F6.0
tp2387
I01
tp2388
F0.0
s((F10.0
F16.0
F10.0
tp2389
g6
tp2390
F-5.0
s((F11.0
F17.0
F9.0
tp2391
I00
tp2392
F-2.8765
s((F17.0
F10.0
F2.0
tp2393
I00
tp2394
F0.0006501465174857644
s((F8.0
F8.0
F10.0
tp2395
g6
tp2396
F-4.0
s((F11.0
F13.0
F10.0
tp2397
I00
tp2398
F-3.121102918194719
s((F12.0
F13.0
F10.0
tp2399
g6
tp2400
F-11.4
s((F13.0
F16.0
F10.0
tp2401
g6
tp2402
F-12.350000000000001
s((F16.0
F12.0
F9.0
tp2403
I00
tp2404
F0.0
s((F7.0
F14.0
F9.0
tp2405
I00
tp2406
F-2.429935217195449
s((F14.0
F10.0
F9.0
tp2407
I00
tp2408
F0.0
s((F6.0
F11.0
F2.0
tp2409
I01
tp2410
F0.4935696383827476
s((F4.0
F12.0
F8.0
tp2411
I01
tp2412
F0.0
s((F9.0
F11.0
F4.0
tp2413
I01
tp2414
F13.656479053186843
s((F19.0
F7.0
F1.0
tp2415
I01
tp2416
F0.0
s((F15.0
F18.0
F8.0
tp2417
I00
tp2418
F0.0
s((F16.0
F2.0
F-2.0
tp2419
g6
tp2420
F-8.0
s((F4.0
F12.0
F3.0
tp2421
I00
tp2422
F0.0
s((F15.0
F9.0
F8.0
tp2423
I01
tp2424
F0.0
s((F17.0
F9.0
F10.0
tp2425
I00
tp2426
F0.0
s((F18.0
F10.0
F3.0
tp2427
I00
tp2428
F0.0010581371438492474
s((F10.0
F10.0
F4.0
tp2429
I01
tp2430
F13.65152666879714
s((F9.0
F18.0
F5.0
tp2431
I00
tp2432
F0.0
s((F9.0
F11.0
F2.0
tp2433
I00
tp2434
F4.287274160860774
s((F11.0
F15.0
F10.0
tp2435
g6
tp2436
F-14.905
s((F7.0
F9.0
F10.0
tp2437
I01
tp2438
F14.367091809394124
s((F19.0
F15.0
F8.0
tp2439
I01
tp2440
F0.0
s((F3.0
F12.0
F6.0
tp2441
I01
tp2442
F1.7128296245160821
s((F20.0
F11.0
F2.0
tp2443
I01
tp2444
F0.0
s((F8.0
F8.0
F1.0
tp2445
g6
tp2446
F-4.0
s((F14.0
F11.0
F4.0
tp2447
I01
tp2448
F0.0
s((F16.0
F12.0
F3.0
tp2449
I01
tp2450
F0.0
s((F17.0
F12.0
F5.0
tp2451
I00
tp2452
F0.0
s((F12.0
F10.0
F4.0
tp2453
I00
tp2454
F7.5411396289208295
s((F6.0
F13.0
F8.0
tp2455
I00
tp2456
F-1.08475
s((F11.0
F16.0
F10.0
tp2457
I00
tp2458
F-3.9546100000000006
s((F17.0
F11.0
F10.0
tp2459
I00
tp2460
F0.0
s((F8.0
F11.0
F8.0
tp2461
I01
tp2462
F0.0
s((F13.0
F12.0
F5.0
tp2463
I00
tp2464
F0.0
s((F13.0
F11.0
F10.0
tp2465
I00
tp2466
F0.0
s((F12.0
F15.0
F10.0
tp2467
g6
tp2468
F-16.259999999999998
s((F8.0
F11.0
F4.0
tp2469
I00
tp2470
F9.87008540951184
s((F0.0
F12.0
F6.0
tp2471
I01
tp2472
F99.99999999999996
s((F9.0
F16.0
F5.0
tp2473
I00
tp2474
F-0.0006775000000000002
s((F10.0
F16.0
F9.0
tp2475
I00
tp2476
F0.0
s((F9.0
F16.0
F6.0
tp2477
I01
tp2478
F-0.0008597500000000003
s((F11.0
F16.0
F9.0
tp2479
I01
tp2480
F-1.5796
s((F1.0
F11.0
F10.0
tp2481
I01
tp2482
F99.99999999974897
s((F7.0
F13.0
F2.0
tp2483
I00
tp2484
F13.595812161710626
s((F15.0
F13.0
F5.0
tp2485
I00
tp2486
F0.0
s((F18.0
F9.0
F0.0
tp2487
I00
tp2488
F9.704120079749775e-10
s((F7.0
F9.0
F9.0
tp2489
I01
tp2490
F0.06311159592680703
s((F13.0
F15.0
F10.0
tp2491
I01
tp2492
F-0.308280898
s((F8.0
F10.0
F2.0
tp2493
I01
tp2494
F2.6005731022190357
s((F12.0
F7.0
F5.0
tp2495
I00
tp2496
F0.0
s((F18.0
F7.0
F10.0
tp2497
I01
tp2498
F0.0017187677701660613
s((F8.0
F14.0
F10.0
tp2499
I01
tp2500
F-1.6273590769957238
s((F15.0
F5.0
F10.0
tp2501
I00
tp2502
F0.0
s((F5.0
F12.0
F6.0
tp2503
I00
tp2504
F0.0
s((F10.0
F14.0
F6.0
tp2505
I00
tp2506
F0.0
s((F6.0
F17.0
F10.0
tp2507
I01
tp2508
F-1.08475
s((F5.0
F11.0
F3.0
tp2509
I01
tp2510
F13.643129465845494
s((F6.0
F16.0
F8.0
tp2511
I01
tp2512
F-1.451275
s((F6.0
F15.0
F10.0
tp2513
g6
tp2514
F-12.285300000000001
s((F20.0
F11.0
F5.0
tp2515
I00
tp2516
F1.7517299364706086e-07
s((F19.0
F13.0
F2.0
tp2517
I01
tp2518
F0.0
s((F14.0
F13.0
F5.0
tp2519
I00
tp2520
F0.0
s((F14.0
F17.0
F10.0
tp2521
I01
tp2522
F-0.06000000000000001
s((F12.0
F15.0
F8.0
tp2523
I01
tp2524
F0.0
s((F18.0
F10.0
F10.0
tp2525
I00
tp2526
F0.0
s((F10.0
F16.0
F9.0
tp2527
g6
tp2528
F-9.5
s((F16.0
F14.0
F6.0
tp2529
I00
tp2530
F0.0
s((F2.0
F12.0
F5.0
tp2531
I00
tp2532
F99.99999999971045
s((F7.0
F10.0
F3.0
tp2533
I00
tp2534
F0.0007269365317685698
s((F5.0
F15.0
F5.0
tp2535
g6
tp2536
F-2.5
s((F11.0
F9.0
F4.0
tp2537
I00
tp2538
F0.22784427473809182
s((F10.0
F12.0
F5.0
tp2539
I00
tp2540
F9.357591913802418
s((F11.0
F17.0
F7.0
tp2541
I01
tp2542
F0.0
s((F9.0
F15.0
F9.0
tp2543
I00
tp2544
F0.0
s((F7.0
F14.0
F10.0
tp2545
I00
tp2546
F-4.914823538551021
s((F20.0
F10.0
F3.0
tp2547
I01
tp2548
F0.0
s((F13.0
F15.0
F9.0
tp2549
I01
tp2550
F0.0
s((F12.0
F14.0
F6.0
tp2551
I00
tp2552
F0.0
s((F5.0
F13.0
F4.0
tp2553
g6
tp2554
F-14.23831975
s((F10.0
F9.0
F7.0
tp2555
I00
tp2556
F0.0
s((F11.0
F11.0
F8.0
tp2557
I01
tp2558
F-7.331310839275001e-05
s((F18.0
F14.0
F5.0
tp2559
I01
tp2560
F0.0
s((F4.0
F12.0
F6.0
tp2561
I00
tp2562
F5.9116422262579145e-05
s((F6.0
F17.0
F10.0
tp2563
I00
tp2564
F-3.1043027500000004
s((F8.0
F12.0
F10.0
tp2565
I01
tp2566
F-0.08331232750000003
s((F5.0
F14.0
F5.0
tp2567
g6
tp2568
F-21.96058363523577
s((F1.0
F11.0
F5.0
tp2569
I00
tp2570
F0.0
s((F8.0
F12.0
F3.0
tp2571
I01
tp2572
F10.51107572294348
s((F11.0
F11.0
F6.0
tp2573
I01
tp2574
F0.0
s((F9.0
F17.0
F8.0
tp2575
g6
tp2576
F-4.5
s((F19.0
F11.0
F1.0
tp2577
I01
tp2578
F0.0
s((F12.0
F10.0
F6.0
tp2579
I01
tp2580
F0.0
s((F7.0
F15.0
F4.0
tp2581
I01
tp2582
F-0.29396725
s((F20.0
F9.0
F7.0
tp2583
I00
tp2584
F4.0223645827168556e-05
s((F20.0
F10.0
F0.0
tp2585
I00
tp2586
F0.0009241416463999339
s((F19.0
F12.0
F1.0
tp2587
I01
tp2588
F0.0
s((F8.0
F15.0
F10.0
tp2589
I01
tp2590
F-1.7405125550000002
s((F11.0
F14.0
F7.0
tp2591
I01
tp2592
F0.0
s((F14.0
F16.0
F7.0
tp2593
I00
tp2594
F0.0
s((F9.0
F17.0
F9.0
tp2595
g6
tp2596
F-12.195
s((F6.0
F15.0
F9.0
tp2597
I01
tp2598
F-4.856909875000001
s((F6.0
F12.0
F10.0
tp2599
I01
tp2600
F-0.85975
s((F13.0
F9.0
F2.0
tp2601
I00
tp2602
F0.0
s((F15.0
F11.0
F6.0
tp2603
I01
tp2604
F0.0
s((F2.0
F11.0
F9.0
tp2605
I01
tp2606
F7.062642605439464e-07
s((F20.0
F9.0
F3.0
tp2607
I01
tp2608
F5.748502799747626e-05
s((F1.0
F10.0
F3.0
tp2609
I00
tp2610
F0.0
s((F18.0
F11.0
F2.0
tp2611
I00
tp2612
F0.0003319010494553974
s((F5.0
F17.0
F6.0
tp2613
g6
tp2614
F-4.75
s((F14.0
F12.0
F3.0
tp2615
I01
tp2616
F0.0
s((F10.0
F13.0
F10.0
tp2617
I00
tp2618
F-3.193039596710331
s((F13.0
F16.0
F10.0
tp2619
I00
tp2620
F-1.9802940000000004
s((F17.0
F14.0
F7.0
tp2621
I01
tp2622
F0.0
s((F18.0
F15.0
F9.0
tp2623
I00
tp2624
F0.0
s((F15.0
F15.0
F10.0
tp2625
I00
tp2626
F-0.030894000000000008
s((F4.0
F11.0
F10.0
tp2627
I00
tp2628
F12.850301591578846
s((F11.0
F8.0
F8.0
tp2629
I01
tp2630
F0.0
s((F20.0
F14.0
F0.0
tp2631
I00
tp2632
F0.0
s((F9.0
F12.0
F4.0
tp2633
I00
tp2634
F13.4489061906851
s((F8.0
F11.0
F10.0
tp2635
I01
tp2636
F13.654998950521959
s((F15.0
F14.0
F10.0
tp2637
I00
tp2638
F-0.08394527940000004
s((F8.0
F14.0
F8.0
tp2639
I01
tp2640
F-0.12285300000000003
s((F19.0
F9.0
F-1.0
tp2641
I00
tp2642
F0.00042028427160745695
s((F13.0
F14.0
F7.0
tp2643
I01
tp2644
F-0.05449500000000001
s((F14.0
F15.0
F7.0
tp2645
I00
tp2646
F-0.0015150891374511304
s((F9.0
F10.0
F4.0
tp2647
I00
tp2648
F0.004579873305093746
s((F10.0
F17.0
F6.0
tp2649
I01
tp2650
F0.0
s((F7.0
F12.0
F4.0
tp2651
I01
tp2652
F2.778749475178767
s((F7.0
F15.0
F7.0
tp2653
I01
tp2654
F-0.47646751772500007
s((F6.0
F11.0
F6.0
tp2655
I00
tp2656
F11.001226168648973
s((F12.0
F13.0
F10.0
tp2657
I01
tp2658
F-1.045
s((F11.0
F14.0
F4.0
tp2659
I01
tp2660
F0.0
s((F17.0
F8.0
F0.0
tp2661
I01
tp2662
F0.0007495453495379431
s((F12.0
F18.0
F9.0
tp2663
I01
tp2664
F0.0
s((F13.0
F11.0
F4.0
tp2665
I01
tp2666
F0.0
s((F11.0
F8.0
F7.0
tp2667
I00
tp2668
F0.0
s((F15.0
F7.0
F10.0
tp2669
I00
tp2670
F0.0
s((F9.0
F13.0
F4.0
tp2671
I00
tp2672
F10.511075722941978
s((F6.0
F15.0
F10.0
tp2673
I01
tp2674
F-5.770553214450253
s((F7.0
F16.0
F7.0
tp2675
I01
tp2676
F0.0
s((F6.0
F17.0
F8.0
tp2677
I00
tp2678
F-0.9025000000000001
s((F6.0
F16.0
F10.0
tp2679
I00
tp2680
F-3.361672555
s((F9.0
F13.0
F9.0
tp2681
I00
tp2682
F-0.20347902539573764
s((F10.0
F12.0
F3.0
tp2683
I01
tp2684
F0.0
s((F10.0
F12.0
F10.0
tp2685
I00
tp2686
F-0.08208289759263619
s((F2.0
F11.0
F10.0
tp2687
I01
tp2688
F9.998457762166593
s((F17.0
F7.0
F0.0
tp2689
I01
tp2690
F0.0
s((F12.0
F10.0
F7.0
tp2691
I01
tp2692
F0.0
s((F6.0
F13.0
F6.0
tp2693
I00
tp2694
F-3.8699997354547286
s((F8.0
F15.0
F9.0
tp2695
g6
tp2696
F-13.756
s((F11.0
F12.0
F7.0
tp2697
I01
tp2698
F-1.2872500000000003e-05
s((F6.0
F11.0
F5.0
tp2699
I01
tp2700
F5.161052008849728
s((F12.0
F13.0
F9.0
tp2701
I00
tp2702
F-2.164456640748495
s((F16.0
F12.0
F4.0
tp2703
I01
tp2704
F0.0
s((F19.0
F13.0
F0.0
tp2705
I00
tp2706
F0.0
s((F0.0
F12.0
F8.0
tp2707
I01
tp2708
F42.87230638537223
s((F16.0
F12.0
F7.0
tp2709
I00
tp2710
F0.0
s((F5.0
F13.0
F1.0
tp2711
I00
tp2712
F0.13568660082179532
s((F7.0
F11.0
F5.0
tp2713
I00
tp2714
F0.0
s((F10.0
F16.0
F4.0
tp2715
I01
tp2716
F0.0
s((F8.0
F19.0
F9.0
tp2717
g6
tp2718
F-4.0
s((F15.0
F11.0
F7.0
tp2719
I01
tp2720
F0.0
s((F7.0
F12.0
F7.0
tp2721
I01
tp2722
F0.0
s((F9.0
F10.0
F1.0
tp2723
I01
tp2724
F10.946675989691787
s((F15.0
F13.0
F8.0
tp2725
I00
tp2726
F-0.006757002302630455
s((F19.0
F13.0
F4.0
tp2727
I01
tp2728
F0.0
s((F13.0
F14.0
F8.0
tp2729
I01
tp2730
F0.0
s((F8.0
F12.0
F3.0
tp2731
I00
tp2732
F13.658426290793809
s((F11.0
F7.0
F7.0
tp2733
I01
tp2734
F0.0
s((F16.0
F8.0
F3.0
tp2735
I01
tp2736
F0.0
s((F2.0
F13.0
F10.0
tp2737
g6
tp2738
F-1.0
s((F17.0
F14.0
F6.0
tp2739
I01
tp2740
F0.0
s((F9.0
F9.0
F9.0
tp2741
I00
tp2742
F0.10466882781875313
s((F12.0
F15.0
F9.0
tp2743
g6
tp2744
F-16.259999999999998
s((F5.0
F19.0
F10.0
tp2745
g6
tp2746
F-2.5
s((F10.0
F11.0
F9.0
tp2747
I00
tp2748
F0.09448507647420644
s((F8.0
F13.0
F8.0
tp2749
g6
tp2750
F-4.0
s((F9.0
F16.0
F9.0
tp2751
I01
tp2752
F-0.4
s((F9.0
F6.0
F5.0
tp2753
I00
tp2754
F0.0
s((F17.0
F5.0
F-1.0
tp2755
I00
tp2756
F-0.8
s((F19.0
F9.0
F0.0
tp2757
I00
tp2758
F0.000889403609643017
s((F8.0
F13.0
F4.0
tp2759
I00
tp2760
F0.0036905453298570643
s((F19.0
F8.0
F1.0
tp2761
I00
tp2762
F0.0
s((F17.0
F10.0
F0.0
tp2763
I01
tp2764
F0.00016203364982768617
s((F12.0
F9.0
F4.0
tp2765
I00
tp2766
F0.0773225676237484
s((F13.0
F18.0
F8.0
tp2767
I00
tp2768
F0.0
s((F17.0
F8.0
F1.0
tp2769
I01
tp2770
F0.0003223787582680523
s((F9.0
F17.0
F7.0
tp2771
g6
tp2772
F-8.55
s((F10.0
F18.0
F10.0
tp2773
I00
tp2774
F0.0
s((F12.0
F12.0
F3.0
tp2775
I00
tp2776
F0.8124913774278227
s((F4.0
F12.0
F10.0
tp2777
I00
tp2778
F0.0
s((F13.0
F10.0
F6.0
tp2779
I00
tp2780
F0.0
s((F20.0
F12.0
F1.0
tp2781
I01
tp2782
F0.0
s((F5.0
F14.0
F10.0
tp2783
g6
tp2784
F-22.264525271712195
s((F6.0
F7.0
F9.0
tp2785
I01
tp2786
F0.0
s((F18.0
F10.0
F4.0
tp2787
I01
tp2788
F1.1456088425656524e-06
s((F8.0
F18.0
F8.0
tp2789
I01
tp2790
F0.0
s((F19.0
F8.0
F10.0
tp2791
I00
tp2792
F0.0
s((F7.0
F11.0
F4.0
tp2793
I01
tp2794
F14.078025177851943
s((F11.0
F13.0
F5.0
tp2795
I00
tp2796
F0.0
s((F9.0
F10.0
F2.0
tp2797
I01
tp2798
F13.658636401743934
s((F19.0
F10.0
F4.0
tp2799
I01
tp2800
F3.292658838807999e-07
s((F11.0
F12.0
F6.0
tp2801
I01
tp2802
F0.0
s((F0.0
F12.0
F9.0
tp2803
I01
tp2804
F99.99999999999996
s((F17.0
F12.0
F10.0
tp2805
I00
tp2806
F0.0
s((F12.0
F12.0
F4.0
tp2807
I01
tp2808
F0.0
s((F13.0
F10.0
F5.0
tp2809
I01
tp2810
F0.0
s((F20.0
F12.0
F2.0
tp2811
I00
tp2812
F1.0968091145552866e-05
s((F15.0
F9.0
F7.0
tp2813
I01
tp2814
F0.0
s((F2.0
F10.0
F10.0
tp2815
I01
tp2816
F0.0
s((F6.0
F15.0
F4.0
tp2817
I00
tp2818
F0.0
s((F12.0
F11.0
F9.0
tp2819
I01
tp2820
F-1.8970000000000006e-06
s((F10.0
F13.0
F10.0
tp2821
g6
tp2822
F-5.0
s((F11.0
F10.0
F7.0
tp2823
I00
tp2824
F4.875148224545859
s((F20.0
F12.0
F9.0
tp2825
I01
tp2826
F0.0
s((F17.0
F7.0
F2.0
tp2827
I00
tp2828
F0.0
s((F19.0
F10.0
F7.0
tp2829
I00
tp2830
F3.145172585265271e-05
s((F11.0
F12.0
F5.0
tp2831
I00
tp2832
F0.23126112127573617
s((F10.0
F10.0
F3.0
tp2833
I01
tp2834
F13.657512675138499
s((F16.0
F11.0
F4.0
tp2835
I00
tp2836
F5.076675518958063e-10
s((F15.0
F8.0
F1.0
tp2837
g6
tp2838
F-7.5
s((F0.0
F9.0
F3.0
tp2839
g6
tp2840
F0.0
s((F11.0
F6.0
F5.0
tp2841
I00
tp2842
F0.0
s((F9.0
F16.0
F10.0
tp2843
g6
tp2844
F-8.55
s((F15.0
F14.0
F4.0
tp2845
I00
tp2846
F0.0
s((F10.0
F9.0
F3.0
tp2847
I01
tp2848
F0.0
s((F8.0
F10.0
F9.0
tp2849
I00
tp2850
F0.0
s((F8.0
F18.0
F10.0
tp2851
I01
tp2852
F-0.35000000000000003
s((F8.0
F16.0
F9.0
tp2853
I00
tp2854
F0.0
s((F17.0
F8.0
F10.0
tp2855
I00
tp2856
F0.0
s((F8.0
F15.0
F3.0
tp2857
I00
tp2858
F0.0
s((F11.0
F13.0
F3.0
tp2859
I00
tp2860
F0.0
s((F16.0
F10.0
F2.0
tp2861
I01
tp2862
F0.00013518810182640994
s((F6.0
F10.0
F1.0
tp2863
I01
tp2864
F5.196872327719546
s((F15.0
F14.0
F7.0
tp2865
I01
tp2866
F0.0
s((F17.0
F16.0
F9.0
tp2867
I00
tp2868
F0.0
s((F7.0
F17.0
F9.0
tp2869
g6
tp2870
F-9.485
s((F0.0
F13.0
F9.0
tp2871
g6
tp2872
F0.0
s((F18.0
F14.0
F6.0
tp2873
I00
tp2874
F0.0
s((F13.0
F19.0
F10.0
tp2875
g6
tp2876
F-12.350000000000001
s((F20.0
F14.0
F7.0
tp2877
I00
tp2878
F0.0
s((F9.0
F16.0
F8.0
tp2879
g6
tp2880
F-4.5
s((F19.0
F14.0
F10.0
tp2881
I00
tp2882
F0.0
s((F11.0
F9.0
F7.0
tp2883
I01
tp2884
F0.0
s((F8.0
F16.0
F10.0
tp2885
I01
tp2886
F-0.95075
s((F8.0
F15.0
F8.0
tp2887
I00
tp2888
F-0.025077237775000007
s((F11.0
F18.0
F5.0
tp2889
I00
tp2890
F0.0
s((F3.0
F10.0
F2.0
tp2891
I00
tp2892
F0.0
s((F13.0
F15.0
F8.0
tp2893
I01
tp2894
F-0.05500000000000001
s((F17.0
F5.0
F0.0
tp2895
I00
tp2896
F0.0
s((F4.0
F11.0
F3.0
tp2897
I01
tp2898
F0.010263959823754307
s((F19.0
F13.0
F10.0
tp2899
I00
tp2900
F0.0
s((F16.0
F6.0
F2.0
tp2901
I01
tp2902
F0.0
s((F3.0
F10.0
F9.0
tp2903
I00
tp2904
F0.0
s((F13.0
F12.0
F7.0
tp2905
I00
tp2906
F0.0
s((F20.0
F11.0
F8.0
tp2907
I00
tp2908
F0.0
s((F4.0
F13.0
F10.0
tp2909
g6
tp2910
F-5.42
s((F7.0
F11.0
F9.0
tp2911
I00
tp2912
F-0.02748612994797737
s((F2.0
F12.0
F10.0
tp2913
I01
tp2914
F-0.3587530442500406
s((F9.0
F13.0
F7.0
tp2915
g6
tp2916
F-25.628975550000003
s((F20.0
F14.0
F4.0
tp2917
I01
tp2918
F0.0
s((F18.0
F12.0
F5.0
tp2919
I00
tp2920
F0.0
s((F11.0
F9.0
F8.0
tp2921
I00
tp2922
F0.0
s((F8.0
F9.0
F3.0
tp2923
I01
tp2924
F4.624516354564843
s((F12.0
F10.0
F8.0
tp2925
I00
tp2926
F2.316149827900321
s((F6.0
F16.0
F10.0
tp2927
g6
tp2928
F-5.7
s((F18.0
F13.0
F5.0
tp2929
I01
tp2930
F0.0
s((F12.0
F16.0
F10.0
tp2931
I01
tp2932
F-2.8615073410000003
s((F7.0
F13.0
F7.0
tp2933
I00
tp2934
F-1.9780431552274984
s((F17.0
F14.0
F8.0
tp2935
I00
tp2936
F0.0
s((F1.0
F13.0
F10.0
tp2937
I00
tp2938
F0.0
s((F3.0
F11.0
F3.0
tp2939
I01
tp2940
F0.09181030748041756
s((F16.0
F10.0
F5.0
tp2941
I01
tp2942
F0.0
s((F6.0
F10.0
F10.0
tp2943
I01
tp2944
F14.634982745682434
s((F12.0
F12.0
F6.0
tp2945
I00
tp2946
F0.0
s((F11.0
F19.0
F10.0
tp2947
g6
tp2948
F-10.45
s((F13.0
F9.0
F10.0
tp2949
I00
tp2950
F0.0
s((F19.0
F14.0
F6.0
tp2951
I01
tp2952
F0.0
s((F7.0
F10.0
F1.0
tp2953
I00
tp2954
F0.0
s((F19.0
F11.0
F6.0
tp2955
I00
tp2956
F0.0
s((F16.0
F9.0
F0.0
tp2957
I01
tp2958
F-2.168
s((F16.0
F9.0
F6.0
tp2959
I00
tp2960
F0.0
s((F16.0
F10.0
F9.0
tp2961
I00
tp2962
F0.0
s((F7.0
F13.0
F8.0
tp2963
I01
tp2964
F-1.7029565000000002
s((F15.0
F13.0
F6.0
tp2965
I00
tp2966
F0.0
s((F13.0
F16.0
F8.0
tp2967
I01
tp2968
F-1.6260000000000003
s((F13.0
F15.0
F7.0
tp2969
I01
tp2970
F-0.09969877400000003
s((F14.0
F13.0
F8.0
tp2971
I00
tp2972
F-0.01935760222840714
s((F10.0
F15.0
F10.0
tp2973
g6
tp2974
F-5.0
s((F8.0
F14.0
F9.0
tp2975
g6
tp2976
F-16.3804
s((F13.0
F10.0
F10.0
tp2977
I00
tp2978
F-6.775000000000003e-08
s((F6.0
F13.0
F10.0
tp2979
g6
tp2980
F-3.0
s((F12.0
F14.0
F5.0
tp2981
I00
tp2982
F0.0
s((F19.0
F14.0
F9.0
tp2983
I00
tp2984
F0.0
s((F20.0
F13.0
F4.0
tp2985
I01
tp2986
F0.0
s((F6.0
F12.0
F8.0
tp2987
I00
tp2988
F0.0
s((F16.0
F15.0
F6.0
tp2989
I00
tp2990
F0.0
s((F5.0
F12.0
F9.0
tp2991
I00
tp2992
F0.0
s((F15.0
F6.0
F9.0
tp2993
I01
tp2994
F0.0
s((F16.0
F9.0
F5.0
tp2995
I01
tp2996
F0.0007106577242416302
s((F10.0
F13.0
F3.0
tp2997
I00
tp2998
F13.638217520598188
s((F11.0
F12.0
F10.0
tp2999
I01
tp3000
F-9.592729755347501e-05
s((F12.0
F16.0
F9.0
tp3001
I01
tp3002
F-4.8964415500000005
s((F10.0
F14.0
F10.0
tp3003
g6
tp3004
F-26.085155
s((F20.0
F13.0
F8.0
tp3005
I01
tp3006
F0.0
s((F16.0
F5.0
F1.0
tp3007
I00
tp3008
F0.0
s((F18.0
F7.0
F3.0
tp3009
I01
tp3010
F0.0
s((F8.0
F19.0
F8.0
tp3011
g6
tp3012
F-4.0
s((F13.0
F10.0
F9.0
tp3013
I01
tp3014
F0.0
s((F20.0
F10.0
F9.0
tp3015
I01
tp3016
F0.0
s((F17.0
F12.0
F4.0
tp3017
I00
tp3018
F0.0
s((F20.0
F13.0
F3.0
tp3019
I00
tp3020
F0.0
s((F1.0
F12.0
F6.0
tp3021
I01
tp3022
F80.48675847068739
s((F11.0
F16.0
F7.0
tp3023
I00
tp3024
F0.0
s((F15.0
F9.0
F3.0
tp3025
I01
tp3026
F0.0033711531216730818
s((F16.0
F6.0
F9.0
tp3027
I01
tp3028
F0.0
s((F17.0
F10.0
F4.0
tp3029
I00
tp3030
F0.0007282334649534797
s((F5.0
F17.0
F10.0
tp3031
g6
tp3032
F-11.713975
s((F11.0
F13.0
F8.0
tp3033
I00
tp3034
F-0.7677881407945977
s((F13.0
F16.0
F7.0
tp3035
I01
tp3036
F0.0
s((F11.0
F12.0
F9.0
tp3037
I00
tp3038
F-2.6878980009848714
s((F10.0
F13.0
F8.0
tp3039
I00
tp3040
F-1.6113886149795849
s((F12.0
F11.0
F3.0
tp3041
I00
tp3042
F5.5975726205822385
s((F13.0
F14.0
F5.0
tp3043
I00
tp3044
F0.0
s((F20.0
F10.0
F5.0
tp3045
I00
tp3046
F0.0002353196242764466
s((F9.0
F18.0
F10.0
tp3047
I00
tp3048
F-0.4
s((F10.0
F11.0
F2.0
tp3049
I01
tp3050
F13.314904572021101
s((F19.0
F10.0
F10.0
tp3051
I01
tp3052
F0.0
s((F17.0
F16.0
F10.0
tp3053
I00
tp3054
F0.0
s((F17.0
F13.0
F4.0
tp3055
I00
tp3056
F0.0
s((F20.0
F13.0
F7.0
tp3057
I01
tp3058
F0.0
s((F7.0
F11.0
F2.0
tp3059
I00
tp3060
F0.0
s((F14.0
F10.0
F4.0
tp3061
I00
tp3062
F0.0
s((F2.0
F12.0
F8.0
tp3063
I00
tp3064
F99.70615019585259
s((F9.0
F14.0
F7.0
tp3065
I00
tp3066
F-0.513841562260755
s((F18.0
F10.0
F7.0
tp3067
I01
tp3068
F0.0
s((F3.0
F12.0
F8.0
tp3069
I00
tp3070
F12.948488080854002
s((F18.0
F12.0
F3.0
tp3071
I01
tp3072
F0.0
s((F20.0
F14.0
F9.0
tp3073
I01
tp3074
F0.0
s((F16.0
F16.0
F8.0
tp3075
I00
tp3076
F0.0
s((F14.0
F7.0
F7.0
tp3077
I01
tp3078
F0.0
s((F20.0
F9.0
F9.0
tp3079
I01
tp3080
F2.575288561744685e-06
s((F16.0
F11.0
F9.0
tp3081
I00
tp3082
F0.0
s((F9.0
F18.0
F9.0
tp3083
I01
tp3084
F-0.4
s((F3.0
F10.0
F10.0
tp3085
I00
tp3086
F0.1522096774757148
s((F8.0
F13.0
F6.0
tp3087
I00
tp3088
F0.0
s((F6.0
F11.0
F3.0
tp3089
I00
tp3090
F0.0
s((F18.0
F7.0
F-1.0
tp3091
I00
tp3092
F0.0
s((F18.0
F8.0
F-2.0
tp3093
I00
tp3094
F0.0
s((F11.0
F17.0
F9.0
tp3095
I01
tp3096
F-1.9360000000000002
s((F11.0
F17.0
F10.0
tp3097
I01
tp3098
F-1.3955000000000002
s((F17.0
F10.0
F1.0
tp3099
I01
tp3100
F0.0005067210730742456
s((F10.0
F18.0
F7.0
tp3101
g6
tp3102
F-5.0
s((F7.0
F18.0
F7.0
tp3103
I01
tp3104
F0.0
s((F15.0
F9.0
F10.0
tp3105
g6
tp3106
F-7.5
s((F0.0
F13.0
F8.0
tp3107
g6
tp3108
F0.0
s((F19.0
F11.0
F8.0
tp3109
I01
tp3110
F0.0
s((F14.0
F12.0
F5.0
tp3111
I00
tp3112
F0.0
s((F12.0
F18.0
F7.0
tp3113
I00
tp3114
F-1.6231965986859056e-05
s((F16.0
F12.0
F10.0
tp3115
I01
tp3116
F0.0
s((F8.0
F16.0
F7.0
tp3117
g6
tp3118
F-7.6
s((F18.0
F7.0
F2.0
tp3119
I01
tp3120
F0.0
s((F3.0
F12.0
F7.0
tp3121
I00
tp3122
F4.1839012144381895
s((F12.0
F15.0
F9.0
tp3123
I01
tp3124
F-3.6274303450000005
s((F8.0
F12.0
F4.0
tp3125
I00
tp3126
F14.268309103660977
s((F19.0
F12.0
F8.0
tp3127
I01
tp3128
F0.0
s((F5.0
F7.0
F10.0
tp3129
g6
tp3130
F-2.5
s((F13.0
F18.0
F10.0
tp3131
I00
tp3132
F-0.5400000000000001
s((F18.0
F11.0
F5.0
tp3133
I01
tp3134
F0.0
s((F12.0
F10.0
F5.0
tp3135
I01
tp3136
F0.0
s((F4.0
F12.0
F7.0
tp3137
I00
tp3138
F1.074113615817215
s((F18.0
F6.0
F0.0
tp3139
I00
tp3140
F0.0
s((F19.0
F12.0
F4.0
tp3141
I00
tp3142
F0.0
s((F18.0
F7.0
F1.0
tp3143
I00
tp3144
F0.0
s((F9.0
F15.0
F5.0
tp3145
I01
tp3146
F0.0
s((F1.0
F13.0
F7.0
tp3147
I01
tp3148
F54.31507012246256
s((F16.0
F13.0
F5.0
tp3149
I00
tp3150
F0.0
s((F16.0
F8.0
F2.0
tp3151
I00
tp3152
F0.0
s((F9.0
F16.0
F4.0
tp3153
I01
tp3154
F0.0
s((F18.0
F10.0
F9.0
tp3155
I00
tp3156
F0.0
s((F18.0
F13.0
F9.0
tp3157
I00
tp3158
F0.0
s((F17.0
F10.0
F2.0
tp3159
I01
tp3160
F0.0002845707462099031
s((F11.0
F8.0
F10.0
tp3161
I00
tp3162
F0.0
s((F10.0
F14.0
F4.0
tp3163
I00
tp3164
F0.0
s((F15.0
F8.0
F8.0
tp3165
I00
tp3166
F0.0
s((F16.0
F9.0
F0.0
tp3167
g6
tp3168
F-8.0
s((F2.0
F13.0
F9.0
tp3169
g6
tp3170
F-1.9
s((F8.0
F16.0
F5.0
tp3171
I01
tp3172
F-0.01836025
s((F20.0
F9.0
F6.0
tp3173
I00
tp3174
F0.00024852734479896034
s((F14.0
F11.0
F4.0
tp3175
I00
tp3176
F0.0
s((F5.0
F14.0
F3.0
tp3177
g6
tp3178
F-2.5
s((F16.0
F12.0
F9.0
tp3179
I01
tp3180
F0.0
s((F14.0
F10.0
F9.0
tp3181
I01
tp3182
F0.0
s((F9.0
F15.0
F6.0
tp3183
I00
tp3184
F0.0
s((F4.0
F12.0
F8.0
tp3185
I00
tp3186
F0.5886947589148569
s((F8.0
F11.0
F7.0
tp3187
I01
tp3188
F0.17377342569673376
s((F17.0
F8.0
F3.0
tp3189
I01
tp3190
F0.0
s((F4.0
F12.0
F3.0
tp3191
I01
tp3192
F0.0
s((F8.0
F11.0
F8.0
tp3193
I00
tp3194
F0.0
s((F15.0
F9.0
F8.0
tp3195
I00
tp3196
F0.0
s((F8.0
F13.0
F7.0
tp3197
g6
tp3198
F-16.3804
s((F5.0
F18.0
F6.0
tp3199
g6
tp3200
F-6.775
s((F12.0
F16.0
F7.0
tp3201
I00
tp3202
F-7.09538542993558e-05
s((F18.0
F10.0
F3.0
tp3203
I01
tp3204
F0.00012035566597942953
s((F10.0
F10.0
F4.0
tp3205
I00
tp3206
F9.816496172027982
s((F10.0
F15.0
F7.0
tp3207
I00
tp3208
F0.0
s((F16.0
F8.0
F9.0
tp3209
I00
tp3210
F0.0
s((F18.0
F9.0
F3.0
tp3211
I01
tp3212
F0.0007983260449606724
s((F7.0
F9.0
F10.0
tp3213
I00
tp3214
F0.0
s((F19.0
F9.0
F4.0
tp3215
I01
tp3216
F0.0005318229075298942
s((F11.0
F11.0
F10.0
tp3217
I01
tp3218
F-9.566482017217753e-05
s((F5.0
F11.0
F6.0
tp3219
I01
tp3220
F0.0
s((F4.0
F12.0
F4.0
tp3221
I00
tp3222
F0.20101005299548125
s((F8.0
F18.0
F8.0
tp3223
g6
tp3224
F-7.6
s((F7.0
F16.0
F10.0
tp3225
I00
tp3226
F-0.44942524225000013
s((F10.0
F13.0
F4.0
tp3227
I00
tp3228
F13.673321972458737
s((F11.0
F16.0
F10.0
tp3229
I01
tp3230
F-3.1798405
s((F18.0
F7.0
F10.0
tp3231
I00
tp3232
F0.0
s((F16.0
F8.0
F10.0
tp3233
I01
tp3234
F0.0048688643687465555
s((F11.0
F9.0
F2.0
tp3235
I00
tp3236
F0.0
s((F14.0
F5.0
F10.0
tp3237
I00
tp3238
F0.0
s((F20.0
F11.0
F0.0
tp3239
I00
tp3240
F0.0005068295754650865
s((F9.0
F14.0
F9.0
tp3241
g6
tp3242
F-25.628975550000003
s((F8.0
F9.0
F10.0
tp3243
I00
tp3244
F0.0
s((F11.0
F14.0
F5.0
tp3245
I01
tp3246
F0.0
s((F13.0
F16.0
F8.0
tp3247
g6
tp3248
F-6.5
s((F0.0
F13.0
F6.0
tp3249
I01
tp3250
F77.12280270737877
s((F20.0
F12.0
F7.0
tp3251
I00
tp3252
F0.0
s((F10.0
F16.0
F9.0
tp3253
I01
tp3254
F0.0
s((F11.0
F9.0
F7.0
tp3255
I00
tp3256
F0.0
s((F10.0
F10.0
F9.0
tp3257
I01
tp3258
F5.212542531635905
s((F11.0
F16.0
F9.0
tp3259
I00
tp3260
F0.0
s((F9.0
F11.0
F5.0
tp3261
I00
tp3262
F3.8134331522428515
s((F1.0
F11.0
F10.0
tp3263
I00
tp3264
F99.99999999999996
s((F16.0
F11.0
F2.0
tp3265
I00
tp3266
F6.956023562060139e-05
s((F19.0
F10.0
F2.0
tp3267
I00
tp3268
F0.0012976205630792696
s((F19.0
F13.0
F1.0
tp3269
I00
tp3270
F0.0
s((F18.0
F9.0
F0.0
tp3271
I01
tp3272
F0.0012687051273220845
s((F16.0
F4.0
F10.0
tp3273
I01
tp3274
F0.0
s((F13.0
F15.0
F10.0
tp3275
I00
tp3276
F-1.8979283200934676
s((F9.0
F14.0
F8.0
tp3277
g6
tp3278
F-18.427950000000003
s((F8.0
F10.0
F2.0
tp3279
I00
tp3280
F0.0
s((F7.0
F10.0
F9.0
tp3281
I00
tp3282
F0.0
s((F18.0
F14.0
F9.0
tp3283
I00
tp3284
F0.0
s((F1.0
F11.0
F6.0
tp3285
I01
tp3286
F0.0
s((F17.0
F8.0
F2.0
tp3287
I01
tp3288
F0.0
s((F12.0
F9.0
F5.0
tp3289
I01
tp3290
F1.5444288939447608
s((F15.0
F9.0
F1.0
tp3291
I00
tp3292
F0.0
s((F10.0
F16.0
F10.0
tp3293
I01
tp3294
F-0.8550000000000001
s((F17.0
F4.0
F-1.0
tp3295
I01
tp3296
F0.0
s((F9.0
F17.0
F4.0
tp3297
I00
tp3298
F0.0
s((F6.0
F15.0
F7.0
tp3299
g6
tp3300
F-3.0
s((F11.0
F10.0
F8.0
tp3301
I00
tp3302
F1.2542883769971682
s((F14.0
F14.0
F7.0
tp3303
I01
tp3304
F-0.014796861800000005
s((F13.0
F14.0
F8.0
tp3305
g6
tp3306
F-6.5
s((F6.0
F17.0
F5.0
tp3307
I00
tp3308
F0.0
s((F2.0
F12.0
F5.0
tp3309
I01
tp3310
F0.08364787872771617
s((F14.0
F14.0
F10.0
tp3311
I01
tp3312
F-0.06000000000000001
s((F10.0
F12.0
F5.0
tp3313
I01
tp3314
F0.0
s((F18.0
F8.0
F2.0
tp3315
I01
tp3316
F1.3797447160828855e-08
s((F3.0
F10.0
F3.0
tp3317
I01
tp3318
F0.0
s((F2.0
F10.0
F3.0
tp3319
I01
tp3320
F0.0
s((F7.0
F14.0
F8.0
tp3321
g6
tp3322
F-16.399565000000003
s((F10.0
F10.0
F10.0
tp3323
I01
tp3324
F13.657178203633867
s((F7.0
F14.0
F10.0
tp3325
I01
tp3326
F-2.8329463255070295
s((F1.0
F12.0
F5.0
tp3327
I00
tp3328
F99.99999996979525
s((F18.0
F6.0
F-1.0
tp3329
I01
tp3330
F0.0
s((F8.0
F17.0
F8.0
tp3331
g6
tp3332
F-4.0
s((F16.0
F4.0
F9.0
tp3333
I01
tp3334
F0.0
s((F16.0
F6.0
F8.0
tp3335
I01
tp3336
F0.0
s((F11.0
F11.0
F8.0
tp3337
I00
tp3338
F-6.995246557550948e-05
s((F16.0
F7.0
F9.0
tp3339
I01
tp3340
F0.0
s((F9.0
F12.0
F7.0
tp3341
I01
tp3342
F-0.0012872500000000002
s((F8.0
F12.0
F10.0
tp3343
I00
tp3344
F-0.016422585313917503
s((F7.0
F10.0
F2.0
tp3345
I00
tp3346
F0.0
s((F9.0
F12.0
F8.0
tp3347
I00
tp3348
F-0.509780254640222
s((F1.0
F11.0
F5.0
tp3349
I01
tp3350
F99.99999999982487
s((F16.0
F9.0
F8.0
tp3351
I00
tp3352
F0.0
s((F14.0
F7.0
F8.0
tp3353
I00
tp3354
F0.0
s((F9.0
F10.0
F3.0
tp3355
I01
tp3356
F13.658109909655302
s((F12.0
F10.0
F6.0
tp3357
I00
tp3358
F13.661856118633917
s((F7.0
F15.0
F4.0
tp3359
I00
tp3360
F-0.17939261587974997
s((F13.0
F11.0
F8.0
tp3361
I01
tp3362
F0.0
s((F14.0
F16.0
F8.0
tp3363
I00
tp3364
F0.0
s((F17.0
F5.0
F10.0
tp3365
I01
tp3366
F0.0
s((F19.0
F12.0
F1.0
tp3367
I00
tp3368
F7.798453577701075e-05
s((F15.0
F16.0
F10.0
tp3369
I00
tp3370
F0.0
s((F11.0
F14.0
F7.0
tp3371
I00
tp3372
F-1.2409803450000003
s((F14.0
F16.0
F7.0
tp3373
I01
tp3374
F0.0
s((F9.0
F18.0
F8.0
tp3375
g6
tp3376
F-8.55
s((F6.0
F12.0
F10.0
tp3377
I00
tp3378
F-0.7000000000000001
s((F12.0
F7.0
F10.0
tp3379
I00
tp3380
F0.0
s((F15.0
F10.0
F4.0
tp3381
I00
tp3382
F0.0004870041455697791
s((F15.0
F11.0
F6.0
tp3383
I00
tp3384
F0.0
s((F7.0
F15.0
F8.0
tp3385
I01
tp3386
F-0.20610250000000002
s((F14.0
F9.0
F10.0
tp3387
I01
tp3388
F0.02872447247098904
s((F3.0
F11.0
F7.0
tp3389
I00
tp3390
F0.015888705161012144
s((F20.0
F9.0
F3.0
tp3391
I00
tp3392
F0.0005231551521526032
s((F16.0
F5.0
F0.0
tp3393
g6
tp3394
F-8.0
s((F17.0
F8.0
F0.0
tp3395
I00
tp3396
F-2.24
s((F18.0
F11.0
F2.0
tp3397
I01
tp3398
F0.0
s((F17.0
F12.0
F8.0
tp3399
I00
tp3400
F0.0
s((F20.0
F11.0
F9.0
tp3401
I00
tp3402
F0.0
s((F10.0
F13.0
F10.0
tp3403
I01
tp3404
F-3.5705655000000007
s((F15.0
F17.0
F8.0
tp3405
I01
tp3406
F0.0
s((F15.0
F16.0
F9.0
tp3407
I01
tp3408
F0.0
s((F13.0
F16.0
F10.0
tp3409
I01
tp3410
F-1.1305000000000003
s((F17.0
F14.0
F7.0
tp3411
I00
tp3412
F0.0
s((F10.0
F12.0
F10.0
tp3413
I01
tp3414
F-0.00029945500000000007
s((F10.0
F18.0
F8.0
tp3415
I00
tp3416
F0.0
s((F18.0
F8.0
F2.0
tp3417
I00
tp3418
F3.1926034280625625e-10
s((F4.0
F11.0
F10.0
tp3419
I01
tp3420
F13.64312902808326
s((F9.0
F12.0
F4.0
tp3421
I01
tp3422
F0.0
s((F5.0
F16.0
F9.0
tp3423
g6
tp3424
F-16.2830389975
s((F5.0
F16.0
F7.0
tp3425
g6
tp3426
F-17.15473509775
s((F18.0
F13.0
F8.0
tp3427
I00
tp3428
F0.0
s((F8.0
F14.0
F8.0
tp3429
I00
tp3430
F-1.850716569863388
s((F13.0
F14.0
F7.0
tp3431
I00
tp3432
F-0.1207330555963287
s((F9.0
F10.0
F4.0
tp3433
I01
tp3434
F13.655446835337482
s((F11.0
F7.0
F9.0
tp3435
I00
tp3436
F0.0
s((F9.0
F18.0
F7.0
tp3437
I00
tp3438
F0.0
s((F4.0
F11.0
F6.0
tp3439
I00
tp3440
F0.006307983487453772
s((F13.0
F10.0
F7.0
tp3441
I01
tp3442
F0.0
s((F5.0
F13.0
F6.0
tp3443
g6
tp3444
F-10.23775
s((F7.0
F16.0
F7.0
tp3445
I00
tp3446
F0.0
s((F9.0
F11.0
F9.0
tp3447
I00
tp3448
F-0.00018172283177374696
s((F6.0
F17.0
F8.0
tp3449
I01
tp3450
F-0.6775000000000001
s((F9.0
F13.0
F9.0
tp3451
I01
tp3452
F-0.3371450507329146
s((F2.0
F9.0
F1.0
tp3453
g6
tp3454
F-1.0
s((F18.0
F10.0
F7.0
tp3455
I00
tp3456
F7.458705811908585e-05
s((F7.0
F12.0
F8.0
tp3457
I01
tp3458
F-0.0475
s((F19.0
F8.0
F-1.0
tp3459
I00
tp3460
F0.0
s((F6.0
F11.0
F10.0
tp3461
I00
tp3462
F0.0
s((F17.0
F7.0
F0.0
tp3463
I00
tp3464
F0.0
s((F15.0
F4.0
F1.0
tp3465
g6
tp3466
F-7.5
s((F8.0
F19.0
F10.0
tp3467
g6
tp3468
F-4.0
s((F7.0
F9.0
F2.0
tp3469
I01
tp3470
F0.015487464869855846
s((F-1.0
F9.0
F3.0
tp3471
g259
tp3472
F10.0
s((F5.0
F18.0
F8.0
tp3473
g6
tp3474
F-2.5
s((F11.0
F12.0
F7.0
tp3475
I00
tp3476
F-3.819410237837458e-06
s((F6.0
F11.0
F5.0
tp3477
I00
tp3478
F0.013488495216356986
s((F16.0
F12.0
F4.0
tp3479
I00
tp3480
F0.0
s((F15.0
F15.0
F9.0
tp3481
I00
tp3482
F-0.0397483766597862
s((F16.0
F12.0
F7.0
tp3483
I01
tp3484
F0.0
s((F15.0
F14.0
F8.0
tp3485
I00
tp3486
F-0.019366611621205617
s((F9.0
F14.0
F10.0
tp3487
I00
tp3488
F-1.4323089500000001
s((F9.0
F13.0
F5.0
tp3489
I00
tp3490
F1.061725968019431
s((F13.0
F18.0
F8.0
tp3491
g6
tp3492
F-12.350000000000001
s((F7.0
F11.0
F5.0
tp3493
I01
tp3494
F13.29014602967147
s((F13.0
F7.0
F8.0
tp3495
I00
tp3496
F0.0
s((F9.0
F11.0
F10.0
tp3497
I01
tp3498
F-0.0006775000000000002
s((F10.0
F16.0
F4.0
tp3499
I00
tp3500
F0.0
s((F6.0
F12.0
F7.0
tp3501
I00
tp3502
F0.0
s((F18.0
F10.0
F0.0
tp3503
I01
tp3504
F0.00017139478582325408
s((F7.0
F12.0
F7.0
tp3505
I00
tp3506
F0.0
s((F11.0
F13.0
F6.0
tp3507
I01
tp3508
F0.0
s((F9.0
F10.0
F1.0
tp3509
I00
tp3510
F0.0
s((F14.0
F12.0
F7.0
tp3511
I00
tp3512
F0.0
s((F6.0
F11.0
F9.0
tp3513
I01
tp3514
F0.0214881602240006
s((F19.0
F13.0
F4.0
tp3515
I00
tp3516
F0.0
s((F14.0
F10.0
F8.0
tp3517
I01
tp3518
F0.0
s((F5.0
F7.0
F1.0
tp3519
g6
tp3520
F-2.5
s((F17.0
F6.0
F10.0
tp3521
I00
tp3522
F0.0
s((F10.0
F11.0
F4.0
tp3523
I00
tp3524
F13.664254013244522
s((F12.0
F16.0
F10.0
tp3525
g6
tp3526
F-16.259999999999998
s((F14.0
F17.0
F9.0
tp3527
I01
tp3528
F0.0
s((F10.0
F14.0
F8.0
tp3529
I01
tp3530
F0.0
s((F6.0
F10.0
F3.0
tp3531
I00
tp3532
F0.0
s((F9.0
F14.0
F9.0
tp3533
I01
tp3534
F-2.1347921558482152
s((F9.0
F16.0
F9.0
tp3535
I00
tp3536
F0.0
s((F17.0
F11.0
F2.0
tp3537
I01
tp3538
F0.0
s((F12.0
F8.0
F7.0
tp3539
I00
tp3540
F0.0
s((F1.0
F13.0
F10.0
tp3541
g6
tp3542
F-3.7290670858355
s((F12.0
F9.0
F4.0
tp3543
I01
tp3544
F7.842112987660996
s((F19.0
F7.0
F1.0
tp3545
I00
tp3546
F0.0
s((F17.0
F15.0
F6.0
tp3547
I00
tp3548
F0.0
s((F16.0
F11.0
F7.0
tp3549
I01
tp3550
F0.0
s((F11.0
F14.0
F10.0
tp3551
I00
tp3552
F-1.7328040719317552
s((F15.0
F9.0
F4.0
tp3553
I01
tp3554
F0.006779731548354841
s((F7.0
F15.0
F8.0
tp3555
g6
tp3556
F-9.485
s((F3.0
F12.0
F10.0
tp3557
I00
tp3558
F-0.13500000000000004
s((F12.0
F12.0
F3.0
tp3559
I01
tp3560
F0.0
s((F3.0
F12.0
F7.0
tp3561
I01
tp3562
F0.920569915849701
s((F13.0
F10.0
F6.0
tp3563
I01
tp3564
F0.0
s((F19.0
F9.0
F1.0
tp3565
I00
tp3566
F0.001440683847286215
s((F18.0
F10.0
F4.0
tp3567
I00
tp3568
F0.0006415811164950727
s((F17.0
F8.0
F5.0
tp3569
I01
tp3570
F3.011141975480207e-11
s((F17.0
F15.0
F10.0
tp3571
I01
tp3572
F0.0
s((F19.0
F8.0
F10.0
tp3573
I01
tp3574
F0.0001048242450960187
s((F11.0
F13.0
F5.0
tp3575
I01
tp3576
F0.0
s((F11.0
F17.0
F7.0
tp3577
g6
tp3578
F-22.52305
s((F12.0
F16.0
F8.0
tp3579
I01
tp3580
F0.0
s((F18.0
F15.0
F8.0
tp3581
I00
tp3582
F0.0
s((F3.0
F12.0
F9.0
tp3583
I01
tp3584
F14.764395672131288
s((F17.0
F12.0
F10.0
tp3585
I01
tp3586
F0.0
s((F12.0
F12.0
F4.0
tp3587
I00
tp3588
F7.794128661974623
s((F16.0
F14.0
F9.0
tp3589
I00
tp3590
F0.0
s((F14.0
F11.0
F8.0
tp3591
I00
tp3592
F0.0
s((F13.0
F10.0
F5.0
tp3593
I00
tp3594
F2.3504659746037113
s((F6.0
F14.0
F7.0
tp3595
I00
tp3596
F-13.771989622411738
s((F11.0
F18.0
F10.0
tp3597
g6
tp3598
F-14.905
s((F18.0
F13.0
F4.0
tp3599
I00
tp3600
F0.0
s((F5.0
F17.0
F7.0
tp3601
g6
tp3602
F-8.5975
s((F6.0
F17.0
F9.0
tp3603
I00
tp3604
F-0.7000000000000001
s((F14.0
F9.0
F6.0
tp3605
I01
tp3606
F0.0
s((F6.0
F10.0
F1.0
tp3607
I00
tp3608
F-0.25
s((F17.0
F8.0
F-1.0
tp3609
I00
tp3610
F-0.8
s((F12.0
F16.0
F5.0
tp3611
I00
tp3612
F0.0
s((F12.0
F11.0
F9.0
tp3613
I00
tp3614
F0.0
s((F8.0
F14.0
F8.0
tp3615
g6
tp3616
F-16.3804
s((F15.0
F12.0
F10.0
tp3617
I00
tp3618
F0.0
s((F16.0
F11.0
F4.0
tp3619
I01
tp3620
F0.0
s((F13.0
F13.0
F8.0
tp3621
g6
tp3622
F-6.5
s((F9.0
F15.0
F3.0
tp3623
I00
tp3624
F0.0
s((F8.0
F9.0
F8.0
tp3625
I01
tp3626
F0.4695260933239603
s((F13.0
F11.0
F3.0
tp3627
I00
tp3628
F0.8688702140227407
s((F10.0
F17.0
F10.0
tp3629
g6
tp3630
F-13.55
s((F18.0
F12.0
F2.0
tp3631
I01
tp3632
F0.0
s((F18.0
F13.0
F7.0
tp3633
I01
tp3634
F0.0
s((F8.0
F18.0
F10.0
tp3635
I00
tp3636
F0.0
s((F13.0
F8.0
F10.0
tp3637
I00
tp3638
F0.0
s((F8.0
F16.0
F9.0
tp3639
I01
tp3640
F-0.665
s((F11.0
F10.0
F6.0
tp3641
I00
tp3642
F13.659648648371547
s((F17.0
F8.0
F10.0
tp3643
I01
tp3644
F0.002304818300719618
s((F10.0
F17.0
F5.0
tp3645
I01
tp3646
F0.0
s((F17.0
F7.0
F3.0
tp3647
I00
tp3648
F0.0
s((F11.0
F13.0
F3.0
tp3649
I01
tp3650
F0.0
s((F17.0
F13.0
F8.0
tp3651
I01
tp3652
F0.0
s((F16.0
F10.0
F2.0
tp3653
I00
tp3654
F0.00017048964191594305
s((F15.0
F12.0
F9.0
tp3655
I01
tp3656
F0.0
s((F14.0
F18.0
F7.0
tp3657
I00
tp3658
F0.0
s((F15.0
F14.0
F7.0
tp3659
I00
tp3660
F-0.00624656565294921
s((F20.0
F12.0
F5.0
tp3661
I00
tp3662
F0.0
s((F20.0
F14.0
F7.0
tp3663
I01
tp3664
F0.0
s((F19.0
F14.0
F10.0
tp3665
I01
tp3666
F0.0
s((F3.0
F11.0
F3.0
tp3667
I00
tp3668
F0.0
s((F8.0
F16.0
F10.0
tp3669
I00
tp3670
F-0.8053096251850003
s((F-1.0
F13.0
F10.0
tp3671
g6
tp3672
F3.5878523175950003
s((F19.0
F10.0
F0.0
tp3673
I00
tp3674
F0.0015732014349750087
s((F13.0
F15.0
F8.0
tp3675
I00
tp3676
F-0.16945772188860012
s((F4.0
F11.0
F3.0
tp3677
I00
tp3678
F0.0
s((F20.0
F11.0
F8.0
tp3679
I01
tp3680
F0.0
s((F7.0
F11.0
F9.0
tp3681
I01
tp3682
F0.05918768484585789
s((F2.0
F12.0
F10.0
tp3683
I00
tp3684
F-0.11330163146610778
s((F20.0
F14.0
F4.0
tp3685
I00
tp3686
F0.0
s((F18.0
F12.0
F5.0
tp3687
I01
tp3688
F0.0
s((F11.0
F10.0
F3.0
tp3689
I01
tp3690
F13.66225058566638
s((F17.0
F11.0
F6.0
tp3691
I00
tp3692
F0.0
s((F9.0
F11.0
F7.0
tp3693
I00
tp3694
F5.474155419341202
s((F12.0
F16.0
F10.0
tp3695
I00
tp3696
F-6.940762055482235
s((F15.0
F10.0
F10.0
tp3697
I00
tp3698
F0.0
s((F7.0
F13.0
F7.0
tp3699
I01
tp3700
F-2.2731801164842977
s((F10.0
F13.0
F9.0
tp3701
I01
tp3702
F0.0
s((F12.0
F11.0
F7.0
tp3703
I01
tp3704
F0.0
s((F17.0
F14.0
F8.0
tp3705
I01
tp3706
F0.0
s((F20.0
F11.0
F4.0
tp3707
I00
tp3708
F2.4895680371369258e-05
s((F16.0
F13.0
F10.0
tp3709
I00
tp3710
F0.0
s((F14.0
F10.0
F5.0
tp3711
I00
tp3712
F7.317075000416902e-08
s((F6.0
F10.0
F10.0
tp3713
I00
tp3714
F0.0
s((F1.0
F13.0
F6.0
tp3715
I01
tp3716
F40.93319440163117
s((F18.0
F12.0
F9.0
tp3717
I00
tp3718
F0.0
s((F14.0
F8.0
F7.0
tp3719
I01
tp3720
F0.0
s((F17.0
F10.0
F3.0
tp3721
I01
tp3722
F0.00015996099797962004
s((F13.0
F7.0
F6.0
tp3723
I00
tp3724
F0.0
s((F3.0
F10.0
F5.0
tp3725
I01
tp3726
F0.0
s((F11.0
F17.0
F9.0
tp3727
g6
tp3728
F-25.770745
s((F16.0
F10.0
F9.0
tp3729
I01
tp3730
F0.0
s((F7.0
F13.0
F8.0
tp3731
I00
tp3732
F-1.6153292487981754
s((F20.0
F11.0
F7.0
tp3733
I01
tp3734
F0.0
s((F8.0
F18.0
F9.0
tp3735
g6
tp3736
F-16.3804
s((F16.0
F12.0
F8.0
tp3737
I01
tp3738
F0.0
s((F18.0
F9.0
F6.0
tp3739
I00
tp3740
F0.00023448817386269245
s((F3.0
F13.0
F9.0
tp3741
I00
tp3742
F-0.13500000000000004
s((F14.0
F13.0
F8.0
tp3743
I01
tp3744
F0.0
s((F15.0
F7.0
F7.0
tp3745
I00
tp3746
F0.0
s((F13.0
F10.0
F10.0
tp3747
I01
tp3748
F-1.2872500000000004e-07
s((F12.0
F7.0
F10.0
tp3749
I01
tp3750
F1.1152377686963726e-06
s((F11.0
F11.0
F7.0
tp3751
I00
tp3752
F0.002998630549229087
s((F16.0
F15.0
F6.0
tp3753
I01
tp3754
F0.0
s((F14.0
F7.0
F10.0
tp3755
I00
tp3756
F5.108064347979681e-07
s((F16.0
F9.0
F5.0
tp3757
I00
tp3758
F1.0528916056128288e-09
s((F7.0
F18.0
F8.0
tp3759
I00
tp3760
F0.0
s((F20.0
F10.0
F9.0
tp3761
I00
tp3762
F0.0
s((F12.0
F18.0
F6.0
tp3763
I01
tp3764
F0.0
s((F15.0
F15.0
F6.0
tp3765
I00
tp3766
F0.0
s((F7.0
F19.0
F10.0
tp3767
g6
tp3768
F-6.65
s((F3.0
F13.0
F10.0
tp3769
I01
tp3770
F-0.6142650000000001
s((F18.0
F7.0
F3.0
tp3771
I00
tp3772
F0.0
s((F13.0
F10.0
F9.0
tp3773
I00
tp3774
F0.0
s((F17.0
F12.0
F4.0
tp3775
I01
tp3776
F0.0
s((F6.0
F9.0
F2.0
tp3777
I00
tp3778
F-1.3075
s((F17.0
F8.0
F-2.0
tp3779
g6
tp3780
F-8.5
s((F12.0
F7.0
F8.0
tp3781
I00
tp3782
F0.0
s((F5.0
F8.0
F0.0
tp3783
g6
tp3784
F-4.75
s((F19.0
F11.0
F3.0
tp3785
I01
tp3786
F0.0
s((F17.0
F10.0
F4.0
tp3787
I01
tp3788
F5.676461938717444e-10
s((F13.0
F16.0
F7.0
tp3789
I00
tp3790
F0.0
s((F18.0
F13.0
F9.0
tp3791
I01
tp3792
F0.0
s((F14.0
F13.0
F7.0
tp3793
I01
tp3794
F0.0
s((F15.0
F12.0
F6.0
tp3795
I00
tp3796
F0.0
s((F10.0
F13.0
F8.0
tp3797
I01
tp3798
F-4.518600550230255
s((F12.0
F11.0
F6.0
tp3799
I00
tp3800
F4.904923170016192
s((F14.0
F12.0
F9.0
tp3801
I00
tp3802
F-0.09774000000000004
s((F20.0
F10.0
F5.0
tp3803
I01
tp3804
F0.0
s((F9.0
F18.0
F10.0
tp3805
I01
tp3806
F-1.084
s((F17.0
F16.0
F10.0
tp3807
I01
tp3808
F0.0
s((F20.0
F13.0
F7.0
tp3809
I00
tp3810
F0.0
s((F19.0
F9.0
F8.0
tp3811
I01
tp3812
F0.0
s((F5.0
F18.0
F10.0
tp3813
g6
tp3814
F-10.23775
s((F19.0
F15.0
F8.0
tp3815
I00
tp3816
F0.0
s((F0.0
F13.0
F7.0
tp3817
I01
tp3818
F97.96791716565178
s((F17.0
F10.0
F8.0
tp3819
I00
tp3820
F0.0
s((F11.0
F16.0
F6.0
tp3821
I00
tp3822
F0.0
s((F5.0
F12.0
F10.0
tp3823
I00
tp3824
F-0.47322000000000003
s((F17.0
F6.0
F2.0
tp3825
I00
tp3826
F0.0
s((F19.0
F12.0
F3.0
tp3827
I01
tp3828
F0.0
s((F14.0
F7.0
F7.0
tp3829
I00
tp3830
F0.0
s((F9.0
F9.0
F8.0
tp3831
I01
tp3832
F0.0
s((F20.0
F9.0
F9.0
tp3833
I00
tp3834
F0.0
s((F9.0
F18.0
F9.0
tp3835
I00
tp3836
F0.0
s((F4.0
F11.0
F4.0
tp3837
I00
tp3838
F0.5971005848076157
s((F3.0
F10.0
F10.0
tp3839
I01
tp3840
F1.0276678659259697
s((F7.0
F9.0
F10.0
tp3841
g6
tp3842
F-3.5
s((F9.0
F14.0
F3.0
tp3843
I00
tp3844
F2.31113488557957
s((F17.0
F13.0
F5.0
tp3845
I00
tp3846
F0.0
s((F18.0
F7.0
F-2.0
tp3847
I01
tp3848
F0.0
s((F11.0
F17.0
F10.0
tp3849
I00
tp3850
F-0.40095000000000003
s((F18.0
F8.0
F-1.0
tp3851
I01
tp3852
F0.0022048375096104314
s((F5.0
F13.0
F3.0
tp3853
g6
tp3854
F-17.939261587974997
s((F17.0
F10.0
F1.0
tp3855
I00
tp3856
F3.699772535438417e-05
s((F15.0
F11.0
F8.0
tp3857
I01
tp3858
F0.0
s((F7.0
F18.0
F7.0
tp3859
I00
tp3860
F0.0
s((F13.0
F17.0
F10.0
tp3861
I01
tp3862
F-0.6000000000000001
s((F5.0
F10.0
F7.0
tp3863
I00
tp3864
F0.0
s((F20.0
F9.0
F5.0
tp3865
I01
tp3866
F4.610609173218546e-05
s((F16.0
F16.0
F9.0
tp3867
I00
tp3868
F0.0
s((F19.0
F11.0
F8.0
tp3869
I00
tp3870
F0.0
s((F18.0
F9.0
F-1.0
tp3871
I01
tp3872
F0.0012671068471448413
s((F14.0
F12.0
F5.0
tp3873
I01
tp3874
F0.0
s((F16.0
F12.0
F10.0
tp3875
I00
tp3876
F0.0
s((F9.0
F16.0
F4.0
tp3877
I00
tp3878
F0.0
s((F11.0
F9.0
F5.0
tp3879
I01
tp3880
F13.424100310199883
s((F7.0
F8.0
F2.0
tp3881
I00
tp3882
F0.0
s((F12.0
F15.0
F9.0
tp3883
I00
tp3884
F-4.3421242489484815
s((F5.0
F10.0
F3.0
tp3885
I01
tp3886
F0.0035520955904906355
s((F11.0
F13.0
F4.0
tp3887
I01
tp3888
F0.0
s((F9.0
F12.0
F2.0
tp3889
I00
tp3890
F0.1506540118260685
s((F18.0
F11.0
F5.0
tp3891
I00
tp3892
F3.311797546559931e-10
s((F3.0
F11.0
F8.0
tp3893
I01
tp3894
F0.0
s((F6.0
F14.0
F8.0
tp3895
g6
tp3896
F-8.129999999999999
s((F10.0
F11.0
F6.0
tp3897
I00
tp3898
F13.656053914382534
s((F3.0
F13.0
F6.0
tp3899
I00
tp3900
F0.15423079169624007
s((F3.0
F9.0
F0.0
tp3901
g6
tp3902
F-1.5
s((F19.0
F12.0
F4.0
tp3903
I01
tp3904
F0.0
s((F18.0
F10.0
F-1.0
tp3905
I01
tp3906
F0.0003260355398302541
s((F8.0
F12.0
F5.0
tp3907
I00
tp3908
F8.645904885925704
s((F18.0
F10.0
F9.0
tp3909
I01
tp3910
F0.0
s((F7.0
F16.0
F9.0
tp3911
I01
tp3912
F-0.06775
s((F9.0
F8.0
F1.0
tp3913
I01
tp3914
F0.231485349800719
s((F7.0
F12.0
F2.0
tp3915
I00
tp3916
F13.652404785289916
s((F13.0
F18.0
F10.0
tp3917
I01
tp3918
F-1.6800000000000002
s((F2.0
F11.0
F5.0
tp3919
I01
tp3920
F76.58150034827743
s((F14.0
F15.0
F10.0
tp3921
I00
tp3922
F0.0
s((F20.0
F9.0
F6.0
tp3923
I01
tp3924
F4.499863851404177e-05
s((F16.0
F17.0
F10.0
tp3925
I00
tp3926
F0.0
s((F8.0
F9.0
F9.0
tp3927
I01
tp3928
F0.3637548054893922
s((F3.0
F12.0
F4.0
tp3929
I00
tp3930
F3.581678626404449
s((F8.0
F11.0
F7.0
tp3931
I00
tp3932
F0.11878482768827903
s((F20.0
F13.0
F9.0
tp3933
I01
tp3934
F0.0
s((F5.0
F11.0
F5.0
tp3935
I01
tp3936
F13.348825135001235
s((F14.0
F14.0
F8.0
tp3937
I01
tp3938
F-0.05808262138109123
s((F12.0
F16.0
F7.0
tp3939
I01
tp3940
F0.0
s((F7.0
F13.0
F3.0
tp3941
I00
tp3942
F5.877313884652615
s((F13.0
F13.0
F10.0
tp3943
I01
tp3944
F-0.6445000000000002
s((F16.0
F8.0
F9.0
tp3945
I01
tp3946
F0.0
s((F16.0
F17.0
F9.0
tp3947
I01
tp3948
F0.0
s((F18.0
F9.0
F3.0
tp3949
I00
tp3950
F0.0
s((F4.0
F11.0
F1.0
tp3951
I01
tp3952
F4.921982140388802
s((F6.0
F14.0
F5.0
tp3953
I00
tp3954
F-12.14065776479353
s((F18.0
F14.0
F10.0
tp3955
I01
tp3956
F0.0
s((F11.0
F11.0
F10.0
tp3957
I00
tp3958
F-7.518705977500004e-05
s((F10.0
F18.0
F9.0
tp3959
g6
tp3960
F-5.0
s((F10.0
F15.0
F10.0
tp3961
I00
tp3962
F-0.03600000000000001
s((F7.0
F16.0
F10.0
tp3963
I01
tp3964
F-0.06775
s((F2.0
F13.0
F6.0
tp3965
I00
tp3966
F0.0
s((F5.0
F15.0
F8.0
tp3967
g6
tp3968
F-21.622870705817522
s((F2.0
F11.0
F8.0
tp3969
I00
tp3970
F9.987615989282148
s((F2.0
F11.0
F6.0
tp3971
I01
tp3972
F1.3048949100046856
s((F16.0
F8.0
F10.0
tp3973
I00
tp3974
F2.521995051156969e-07
s((F19.0
F10.0
F9.0
tp3975
I01
tp3976
F0.0
s((F20.0
F11.0
F0.0
tp3977
I01
tp3978
F0.0
s((F1.0
F12.0
F8.0
tp3979
I00
tp3980
F45.67580208902446
s((F8.0
F9.0
F10.0
tp3981
I01
tp3982
F13.659828308257383
s((F11.0
F14.0
F5.0
tp3983
I00
tp3984
F0.0
s((F20.0
F12.0
F7.0
tp3985
I01
tp3986
F0.0
s((F12.0
F11.0
F4.0
tp3987
I00
tp3988
F9.813048403137575
s((F10.0
F13.0
F7.0
tp3989
I00
tp3990
F-1.2320994235607274
s((F7.0
F15.0
F10.0
tp3991
I01
tp3992
F-2.759511454967348
s((F9.0
F10.0
F3.0
tp3993
I00
tp3994
F5.302693445017438
s((F19.0
F10.0
F2.0
tp3995
I01
tp3996
F0.00013103631203157233
s((F17.0
F4.0
F-1.0
tp3997
I00
tp3998
F0.0
s((F7.0
F14.0
F5.0
tp3999
I00
tp4000
F-0.11009884117575024
s((F17.0
F11.0
F3.0
tp4001
I00
tp4002
F8.81998625275659e-05
s((F16.0
F4.0
F10.0
tp4003
I00
tp4004
F0.0
s((F15.0
F7.0
F2.0
tp4005
I01
tp4006
F0.0
s((F12.0
F15.0
F10.0
tp4007
I00
tp4008
F0.0
s((F7.0
F16.0
F8.0
tp4009
g6
tp4010
F-6.65
s((F5.0
F12.0
F1.0
tp4011
I01
tp4012
F0.6851932929340181
s((F7.0
F14.0
F7.0
tp4013
g6
tp4014
F-16.399565000000003
s((F6.0
F10.0
F2.0
tp4015
I00
tp4016
F0.0
s((F4.0
F13.0
F10.0
tp4017
I00
tp4018
F0.0
s((F18.0
F14.0
F9.0
tp4019
I01
tp4020
F0.0
s((F8.0
F18.0
F7.0
tp4021
I00
tp4022
F0.0
s((F17.0
F11.0
F7.0
tp4023
I00
tp4024
F0.0
s((F16.0
F10.0
F8.0
tp4025
I01
tp4026
F0.0
s((F15.0
F10.0
F5.0
tp4027
I01
tp4028
F0.0
s((F9.0
F14.0
F7.0
tp4029
g6
tp4030
F-21.085155000000004
s((F13.0
F12.0
F8.0
tp4031
I00
tp4032
F0.0
s((F20.0
F10.0
F1.0
tp4033
I00
tp4034
F0.0007887535200482455
s((F12.0
F15.0
F7.0
tp4035
g6
tp4036
F-16.259999999999998
s((F10.0
F9.0
F9.0
tp4037
I01
tp4038
F0.997111428831913
s((F16.0
F6.0
F1.0
tp4039
I00
tp4040
F0.0
s((F10.0
F16.0
F10.0
tp4041
I00
tp4042
F-1.6245
s((F11.0
F10.0
F8.0
tp4043
I01
tp4044
F0.0
s((F17.0
F7.0
F-1.0
tp4045
I01
tp4046
F-0.8
s((F12.0
F13.0
F4.0
tp4047
I00
tp4048
F0.0
s((F3.0
F11.0
F4.0
tp4049
I01
tp4050
F4.7468998933100774
s((F14.0
F14.0
F10.0
tp4051
I00
tp4052
F-0.3454366500000001
s((F18.0
F15.0
F8.0
tp4053
I01
tp4054
F0.0
s((F6.0
F13.0
F3.0
tp4055
I00
tp4056
F0.0
s((F8.0
F15.0
F9.0
tp4057
I00
tp4058
F-0.31500000000000006
s((F13.0
F13.0
F8.0
tp4059
I00
tp4060
F0.0
s((F10.0
F10.0
F10.0
tp4061
I00
tp4062
F13.651583810040682
s((F6.0
F9.0
F10.0
tp4063
I00
tp4064
F-0.25
s((F18.0
F6.0
F-2.0
tp4065
I00
tp4066
F0.0
s((F9.0
F17.0
F5.0
tp4067
I00
tp4068
F-0.0012872500000000002
s((F16.0
F6.0
F8.0
tp4069
I00
tp4070
F0.0
s((F16.0
F7.0
F9.0
tp4071
I00
tp4072
F0.0
s((F20.0
F14.0
F1.0
tp4073
I00
tp4074
F0.0
s((F9.0
F12.0
F7.0
tp4075
I00
tp4076
F3.4781539321011077
s((F13.0
F8.0
F7.0
tp4077
I00
tp4078
F0.0
s((F9.0
F12.0
F8.0
tp4079
I01
tp4080
F-0.18624181854049773
s((F6.0
F12.0
F1.0
tp4081
I00
tp4082
F9.763419126071122
s((F16.0
F9.0
F8.0
tp4083
I01
tp4084
F0.0
s((F9.0
F19.0
F9.0
tp4085
g6
tp4086
F-4.5
s((F17.0
F5.0
F10.0
tp4087
I00
tp4088
F3.083138380113938e-09
s((F4.0
F11.0
F9.0
tp4089
I01
tp4090
F0.0
s((F15.0
F16.0
F10.0
tp4091
I01
tp4092
F-0.006000000000000002
s((F5.0
F13.0
F7.0
tp4093
I00
tp4094
F0.0
s((F13.0
F11.0
F9.0
tp4095
I01
tp4096
F0.0
s((F11.0
F11.0
F9.0
tp4097
I00
tp4098
F-7.066521637571131e-05
s((F6.0
F10.0
F3.0
tp4099
I01
tp4100
F0.003083523437882199
s((F10.0
F15.0
F5.0
tp4101
I00
tp4102
F0.0
s((F15.0
F11.0
F3.0
tp4103
I00
tp4104
F1.6260166667593115e-08
s((F9.0
F10.0
F7.0
tp4105
I01
tp4106
F8.085080996197885
s((F17.0
F7.0
F-1.0
tp4107
g6
tp4108
F-8.5
s((F12.0
F10.0
F2.0
tp4109
I00
tp4110
F0.7900471436001972
s((F7.0
F15.0
F8.0
tp4111
I00
tp4112
F-0.06775000000000002
s((F3.0
F11.0
F7.0
tp4113
I01
tp4114
F0.0
s((F7.0
F18.0
F9.0
tp4115
g6
tp4116
F-9.485
s((F12.0
F13.0
F8.0
tp4117
I00
tp4118
F-3.648422782462667
s((F15.0
F17.0
F8.0
tp4119
I00
tp4120
F0.0
s((F19.0
F12.0
F0.0
tp4121
I00
tp4122
F0.00013612384573143664
s((F15.0
F16.0
F9.0
tp4123
I00
tp4124
F0.0
s((F16.0
F13.0
F7.0
tp4125
I01
tp4126
F0.0
s((F5.0
F12.0
F3.0
tp4127
I00
tp4128
F0.20861919965308567
s((F9.0
F13.0
F10.0
tp4129
I01
tp4130
F-2.225927424981269
s((F6.0
F14.0
F9.0
tp4131
g6
tp4132
F-8.129999999999999
s((F13.0
F9.0
F3.0
tp4133
I01
tp4134
F0.03164384739584819
s((F19.0
F11.0
F0.0
tp4135
I00
tp4136
F0.0007729031191245748
s((F14.0
F12.0
F4.0
tp4137
I01
tp4138
F0.0
s((F20.0
F9.0
F2.0
tp4139
I00
tp4140
F0.0007649439223074118
s((F17.0
F9.0
F-2.0
tp4141
g6
tp4142
F-8.5
s((F15.0
F13.0
F10.0
tp4143
I01
tp4144
F-0.006000000000000002
s((F17.0
F6.0
F0.0
tp4145
I01
tp4146
F0.0
s((F12.0
F13.0
F7.0
tp4147
I01
tp4148
F0.0
s((F9.0
F15.0
F7.0
tp4149
g6
tp4150
F-8.55
s((F18.0
F6.0
F-2.0
tp4151
I01
tp4152
F0.0
s((F11.0
F7.0
F9.0
tp4153
I01
tp4154
F0.0
s((F17.0
F10.0
F10.0
tp4155
I00
tp4156
F0.0
s((F13.0
F10.0
F7.0
tp4157
I00
tp4158
F0.0
s((F7.0
F7.0
F1.0
tp4159
I01
tp4160
F0.0
s((F19.0
F8.0
F0.0
tp4161
I00
tp4162
F0.0
s((F8.0
F14.0
F4.0
tp4163
I00
tp4164
F0.0
s((F9.0
F11.0
F9.0
tp4165
I01
tp4166
F13.65547967376269
s((F5.0
F13.0
F10.0
tp4167
g6
tp4168
F-17.15473509775
s((F8.0
F13.0
F8.0
tp4169
I01
tp4170
F-0.737545678919691
s((F19.0
F8.0
F-1.0
tp4171
I01
tp4172
F0.0010789752434162778
s((F13.0
F17.0
F8.0
tp4173
I00
tp4174
F0.0
s((F6.0
F11.0
F10.0
tp4175
I01
tp4176
F13.65260236642979
s((F6.0
F8.0
F2.0
tp4177
I00
tp4178
F0.0
s((F12.0
F17.0
F8.0
tp4179
g6
tp4180
F-16.259999999999998
s((F8.0
F9.0
F2.0
tp4181
I00
tp4182
F0.0
s((F16.0
F6.0
F0.0
tp4183
g6
tp4184
F-8.0
s((F8.0
F10.0
F10.0
tp4185
I01
tp4186
F13.654948796244978
s((F15.0
F15.0
F9.0
tp4187
I01
tp4188
F-0.011400000000000004
s((F7.0
F16.0
F3.0
tp4189
I00
tp4190
F0.0
s((F17.0
F6.0
F-1.0
tp4191
I00
tp4192
F-2.24
s((F9.0
F14.0
F10.0
tp4193
I01
tp4194
F-2.63316200665701
s((F9.0
F13.0
F5.0
tp4195
I01
tp4196
F0.0
s((F19.0
F9.0
F2.0
tp4197
I01
tp4198
F0.000498839491047104
s((F8.0
F16.0
F9.0
tp4199
g6
tp4200
F-7.6
s((F9.0
F11.0
F10.0
tp4201
I00
tp4202
F0.0
s((F18.0
F11.0
F6.0
tp4203
I00
tp4204
F0.0
s((F18.0
F10.0
F0.0
tp4205
I00
tp4206
F4.20345953720205e-05
s((F11.0
F13.0
F6.0
tp4207
I00
tp4208
F0.0
s((F14.0
F12.0
F7.0
tp4209
I01
tp4210
F0.0
s((F6.0
F11.0
F9.0
tp4211
I00
tp4212
F0.0
s((F8.0
F9.0
F1.0
tp4213
I01
tp4214
F11.333055840600899
s((F16.0
F8.0
F-1.0
tp4215
g6
tp4216
F-15.2
s((F14.0
F10.0
F8.0
tp4217
I00
tp4218
F0.0
s((F17.0
F6.0
F10.0
tp4219
I01
tp4220
F7.455494261087121e-09
s((F10.0
F11.0
F4.0
tp4221
I01
tp4222
F0.0
s((F14.0
F17.0
F9.0
tp4223
I00
tp4224
F-0.4738500000000001
s((F20.0
F13.0
F1.0
tp4225
I01
tp4226
F0.0
s((F16.0
F13.0
F6.0
tp4227
I01
tp4228
F0.0
s((F20.0
F12.0
F3.0
tp4229
I00
tp4230
F6.912544945687906e-06
s((F9.0
F14.0
F9.0
tp4231
I00
tp4232
F-1.3108633900372482
s((F10.0
F9.0
F10.0
tp4233
g6
tp4234
F-5.0
s((F-1.0
F13.0
F10.0
tp4235
g259
tp4236
F99.99999999999996
s((F10.0
F9.0
F10.0
tp4237
I01
tp4238
F13.65783067071959
s((F14.0
F14.0
F6.0
tp4239
I00
tp4240
F0.0
s((F13.0
F7.0
F9.0
tp4241
I00
tp4242
F0.0
s((F6.0
F12.0
F4.0
tp4243
I00
tp4244
F13.642894366890818
s((F5.0
F10.0
F10.0
tp4245
I00
tp4246
F0.0
s((F15.0
F16.0
F6.0
tp4247
I00
tp4248
F0.0
s((F19.0
F10.0
F6.0
tp4249
I00
tp4250
F0.00025554835909442637
s((F19.0
F13.0
F5.0
tp4251
I00
tp4252
F0.0
s((F11.0
F12.0
F4.0
tp4253
I00
tp4254
F10.552363206403232
s((F17.0
F12.0
F9.0
tp4255
I01
tp4256
F0.0
s((F16.0
F11.0
F7.0
tp4257
I00
tp4258
F0.0
s((F11.0
F14.0
F10.0
tp4259
I01
tp4260
F-4.529624500000001
s((F6.0
F17.0
F9.0
tp4261
I01
tp4262
F-0.47500000000000003
s((F13.0
F11.0
F5.0
tp4263
I01
tp4264
F0.0
s((F11.0
F13.0
F10.0
tp4265
g6
tp4266
F-14.905
s((F20.0
F12.0
F4.0
tp4267
I01
tp4268
F0.0
s((F5.0
F7.0
F0.0
tp4269
g6
tp4270
F-2.5
s((F19.0
F9.0
F1.0
tp4271
I01
tp4272
F0.0007187255535247763
s((F17.0
F15.0
F10.0
tp4273
I00
tp4274
F0.0
s((F16.0
F4.0
F10.0
tp4275
g6
tp4276
F-8.0
s((F19.0
F10.0
F1.0
tp4277
I01
tp4278
F1.0925666505034867e-05
s((F12.0
F16.0
F8.0
tp4279
I00
tp4280
F0.0
s((F16.0
F4.0
F1.0
tp4281
I01
tp4282
F0.0
s((F3.0
F12.0
F5.0
tp4283
I00
tp4284
F28.435264986762988
s((F11.0
F12.0
F3.0
tp4285
I00
tp4286
F12.905622498940254
s((F14.0
F10.0
F3.0
tp4287
I00
tp4288
F0.0
s((F3.0
F12.0
F9.0
tp4289
I00
tp4290
F0.0006632796513313172
s((F12.0
F15.0
F7.0
tp4291
I01
tp4292
F-1.4905
s((F16.0
F14.0
F9.0
tp4293
I01
tp4294
F0.0
s((F7.0
F10.0
F10.0
tp4295
I00
tp4296
F0.002797057909735753
s((F14.0
F11.0
F8.0
tp4297
I01
tp4298
F0.0
s((F6.0
F14.0
F7.0
tp4299
I01
tp4300
F-6.592665340694797
s((F18.0
F13.0
F4.0
tp4301
I01
tp4302
F0.0
s((F17.0
F8.0
F-1.0
tp4303
I01
tp4304
F-0.8
s((F12.0
F16.0
F5.0
tp4305
I01
tp4306
F0.0
s((F8.0
F15.0
F5.0
tp4307
I01
tp4308
F0.0
s((F14.0
F10.0
F10.0
tp4309
I01
tp4310
F0.0
s((F11.0
F14.0
F9.0
tp4311
I01
tp4312
F0.0
s((F20.0
F11.0
F5.0
tp4313
I01
tp4314
F0.0
s((F15.0
F12.0
F10.0
tp4315
I01
tp4316
F-0.006000000000000002
s((F13.0
F12.0
F6.0
tp4317
I00
tp4318
F0.0
s((F7.0
F17.0
F7.0
tp4319
I00
tp4320
F0.0
s((F13.0
F11.0
F3.0
tp4321
I01
tp4322
F0.0
s((F9.0
F12.0
F3.0
tp4323
I01
tp4324
F13.666757277272662
s((F8.0
F11.0
F9.0
tp4325
I00
tp4326
F0.0
s((F18.0
F13.0
F7.0
tp4327
I00
tp4328
F0.0
s((F11.0
F9.0
F9.0
tp4329
I00
tp4330
F0.005889009354217194
s((F17.0
F9.0
F4.0
tp4331
I01
tp4332
F0.0010505357483504972
s((F13.0
F8.0
F10.0
tp4333
I01
tp4334
F0.00036669755512289343
s((F7.0
F10.0
F5.0
tp4335
I01
tp4336
F0.0
s((F12.0
F10.0
F9.0
tp4337
I00
tp4338
F0.0
s((F12.0
F11.0
F8.0
tp4339
I00
tp4340
F-4.267293242780953e-06
s((F11.0
F18.0
F7.0
tp4341
I01
tp4342
F0.0
s((F11.0
F10.0
F6.0
tp4343
I01
tp4344
F8.372036608709559
s((F10.0
F17.0
F5.0
tp4345
I00
tp4346
F0.0
s((F13.0
F6.0
F9.0
tp4347
I01
tp4348
F0.0
s((F17.0
F7.0
F3.0
tp4349
I01
tp4350
F9.057580313691073e-10
s((F17.0
F13.0
F8.0
tp4351
I00
tp4352
F0.0
s((F15.0
F12.0
F9.0
tp4353
I00
tp4354
F0.0
s((F16.0
F14.0
F10.0
tp4355
I01
tp4356
F-0.0006000000000000003
s((F0.0
F11.0
F4.0
tp4357
I01
tp4358
F0.0
s((F14.0
F10.0
F6.0
tp4359
I01
tp4360
F0.0
s((F15.0
F6.0
F10.0
tp4361
I00
tp4362
F0.0
s((F18.0
F12.0
F6.0
tp4363
I01
tp4364
F0.0
s((F10.0
F15.0
F9.0
tp4365
g6
tp4366
F-5.0
s((F17.0
F11.0
F6.0
tp4367
I01
tp4368
F0.0
s((F20.0
F12.0
F5.0
tp4369
I01
tp4370
F0.0
s((F13.0
F15.0
F10.0
tp4371
g6
tp4372
F-6.5
s((F6.0
F14.0
F2.0
tp4373
I00
tp4374
F0.12401998602105727
s((F19.0
F11.0
F7.0
tp4375
I00
tp4376
F0.0
s((F16.0
F10.0
F6.0
tp4377
I00
tp4378
F0.0
s((F13.0
F16.0
F5.0
tp4379
I00
tp4380
F0.0
s((F13.0
F14.0
F10.0
tp4381
g6
tp4382
F-12.350000000000001
s((F15.0
F13.0
F7.0
tp4383
I00
tp4384
F-0.000557102433772655
s((F11.0
F15.0
F9.0
tp4385
g6
tp4386
F-14.905
s((F18.0
F8.0
F10.0
tp4387
I01
tp4388
F0.0012118461653552956
s((F7.0
F14.0
F6.0
tp4389
I00
tp4390
F-0.16860149020477805
s((F14.0
F18.0
F8.0
tp4391
I00
tp4392
F0.0
s((F7.0
F9.0
F3.0
tp4393
I01
tp4394
F0.018555084911965277
s((F13.0
F9.0
F8.0
tp4395
I01
tp4396
F1.1152377686963726e-06
s((F19.0
F14.0
F8.0
tp4397
I00
tp4398
F0.0
s((F8.0
F18.0
F9.0
tp4399
I00
tp4400
F-1.0886715
s((F17.0
F11.0
F5.0
tp4401
I00
tp4402
F0.0
s((F6.0
F12.0
F9.0
tp4403
I00
tp4404
F0.0
s((F8.0
F14.0
F3.0
tp4405
I00
tp4406
F1.121831312103542
s((F19.0
F11.0
F4.0
tp4407
I01
tp4408
F0.0
s((F11.0
F10.0
F3.0
tp4409
I00
tp4410
F7.617753832197453
s((F6.0
F15.0
F9.0
tp4411
I00
tp4412
F-6.087475392787041
s((F11.0
F18.0
F8.0
tp4413
g6
tp4414
F-10.45
s((F0.0
F13.0
F10.0
tp4415
g6
tp4416
F0.0
s((F11.0
F15.0
F8.0
tp4417
I00
tp4418
F-0.9405
s((F15.0
F10.0
F10.0
tp4419
I01
tp4420
F0.0
s((F10.0
F13.0
F9.0
tp4421
I00
tp4422
F-0.2606025174307642
s((F10.0
F15.0
F5.0
tp4423
I01
tp4424
F0.0
s((F20.0
F11.0
F4.0
tp4425
I01
tp4426
F0.0
s((F9.0
F11.0
F5.0
tp4427
I01
tp4428
F13.655243124691058
s((F11.0
F13.0
F7.0
tp4429
g6
tp4430
F-31.324303450000002
s((F16.0
F13.0
F10.0
tp4431
I01
tp4432
F0.0
s((F4.0
F11.0
F2.0
tp4433
I00
tp4434
F0.0
s((F16.0
F6.0
F3.0
tp4435
I00
tp4436
F0.0
s((F14.0
F10.0
F5.0
tp4437
I01
tp4438
F0.0
s((F1.0
F13.0
F6.0
tp4439
I00
tp4440
F95.27976376210597
s((F18.0
F12.0
F9.0
tp4441
I01
tp4442
F0.0
s((F18.0
F11.0
F9.0
tp4443
I01
tp4444
F0.0
s((F5.0
F11.0
F9.0
tp4445
I00
tp4446
F0.0
s((F17.0
F10.0
F3.0
tp4447
I00
tp4448
F0.00044035319838740177
s((F6.0
F13.0
F1.0
tp4449
I00
tp4450
F2.8593059725345333
s((F15.0
F10.0
F6.0
tp4451
I00
tp4452
F0.0
s((F7.0
F18.0
F5.0
tp4453
I00
tp4454
F0.0
s((F11.0
F12.0
F8.0
tp4455
I00
tp4456
F-0.2940345000000001
s((F7.0
F16.0
F9.0
tp4457
g6
tp4458
F-9.485
s((F13.0
F13.0
F7.0
tp4459
I00
tp4460
F0.0
s((F20.0
F11.0
F7.0
tp4461
I00
tp4462
F0.0
s((F16.0
F12.0
F8.0
tp4463
I00
tp4464
F0.0
s((F16.0
F13.0
F9.0
tp4465
I00
tp4466
F0.0
s((F10.0
F14.0
F8.0
tp4467
I00
tp4468
F-0.6243392200500001
s((F16.0
F9.0
F7.0
tp4469
I01
tp4470
F0.0
s((F15.0
F7.0
F7.0
tp4471
I01
tp4472
F0.0
s((F2.0
F12.0
F9.0
tp4473
I00
tp4474
F0.0
s((F17.0
F10.0
F7.0
tp4475
I01
tp4476
F0.0
s((F12.0
F9.0
F10.0
tp4477
I00
tp4478
F1.0953029839366215
s((F11.0
F11.0
F7.0
tp4479
I01
tp4480
F0.0
s((F5.0
F11.0
F10.0
tp4481
I01
tp4482
F13.643221999589647
s((F6.0
F12.0
F3.0
tp4483
I00
tp4484
F0.05507348527276991
s((F15.0
F10.0
F9.0
tp4485
I01
tp4486
F0.0
s((F14.0
F7.0
F10.0
tp4487
I01
tp4488
F3.2884715651647433e-06
s((F14.0
F8.0
F8.0
tp4489
I01
tp4490
F0.0
s((F14.0
F14.0
F9.0
tp4491
I01
tp4492
F-0.65
s((F3.0
F11.0
F10.0
tp4493
I01
tp4494
F0.007699672447331856
s((F12.0
F18.0
F6.0
tp4495
I00
tp4496
F0.0
s((F3.0
F13.0
F10.0
tp4497
I00
tp4498
F-1.1012950000000004
s((F2.0
F12.0
F6.0
tp4499
I01
tp4500
F0.10360356180584773
s((F6.0
F9.0
F2.0
tp4501
I01
tp4502
F-0.6775000000000001
s((F12.0
F9.0
F9.0
tp4503
I01
tp4504
F0.0
s((F19.0
F11.0
F-1.0
tp4505
I01
tp4506
F0.0
s((F17.0
F15.0
F7.0
tp4507
I00
tp4508
F0.0
s((F5.0
F6.0
F1.0
tp4509
g6
tp4510
F-2.5
s((F16.0
F16.0
F10.0
tp4511
I01
tp4512
F0.0
s((F16.0
F8.0
F0.0
tp4513
I00
tp4514
F-1.52
s((F7.0
F10.0
F9.0
tp4515
I01
tp4516
F0.0
s((F18.0
F8.0
F4.0
tp4517
I01
tp4518
F0.0
s((F2.0
F11.0
F7.0
tp4519
I01
tp4520
F0.8346820571215302
s((F14.0
F12.0
F10.0
tp4521
I00
tp4522
F-0.05963815000000001
s((F9.0
F9.0
F1.0
tp4523
I00
tp4524
F0.0
s((F14.0
F13.0
F7.0
tp4525
I00
tp4526
F-0.004615156739723485
s((F15.0
F12.0
F6.0
tp4527
I01
tp4528
F0.0
s((F13.0
F12.0
F4.0
tp4529
I00
tp4530
F0.0
s((F7.0
F6.0
F10.0
tp4531
I00
tp4532
F0.0
s((F14.0
F12.0
F9.0
tp4533
I01
tp4534
F-0.06000000000000001
s((F17.0
F13.0
F6.0
tp4535
I01
tp4536
F0.0
s((F6.0
F17.0
F7.0
tp4537
I01
tp4538
F-0.6775000000000001
s((F8.0
F17.0
F10.0
tp4539
I00
tp4540
F-0.7938000000000002
s((F12.0
F8.0
F7.0
tp4541
I01
tp4542
F1.1152377686963726e-05
s((F13.0
F13.0
F8.0
tp4543
I01
tp4544
F-0.6000000000000001
s((F19.0
F9.0
F8.0
tp4545
I00
tp4546
F0.0
s((F17.0
F10.0
F8.0
tp4547
I01
tp4548
F0.0
s((F5.0
F18.0
F9.0
tp4549
g6
tp4550
F-8.5975
s((F11.0
F16.0
F6.0
tp4551
I01
tp4552
F0.0
s((F10.0
F9.0
F2.0
tp4553
I01
tp4554
F0.0
s((F5.0
F12.0
F10.0
tp4555
I01
tp4556
F-0.38
s((F17.0
F8.0
F9.0
tp4557
I01
tp4558
F0.0
s((F16.0
F9.0
F2.0
tp4559
I00
tp4560
F0.0
s((F7.0
F12.0
F3.0
tp4561
I01
tp4562
F0.6081517907888208
s((F17.0
F6.0
F2.0
tp4563
I01
tp4564
F0.0
s((F15.0
F12.0
F5.0
tp4565
I00
tp4566
F0.0
s((F11.0
F18.0
F10.0
tp4567
I00
tp4568
F0.0
s((F8.0
F16.0
F3.0
tp4569
I00
tp4570
F0.0
s((F5.0
F16.0
F6.0
tp4571
g6
tp4572
F-2.5
s((F12.0
F13.0
F6.0
tp4573
I00
tp4574
F0.0
s((F4.0
F11.0
F4.0
tp4575
I01
tp4576
F0.7966151087142498
s((F18.0
F7.0
F0.0
tp4577
I00
tp4578
F0.0
s((F8.0
F17.0
F9.0
tp4579
I01
tp4580
F-0.9485
s((F17.0
F13.0
F5.0
tp4581
I01
tp4582
F0.0
s((F4.0
F13.0
F7.0
tp4583
I00
tp4584
F0.7822565428943263
s((F8.0
F12.0
F6.0
tp4585
I01
tp4586
F0.0
s((F12.0
F13.0
F5.0
tp4587
I00
tp4588
F0.0
s((F19.0
F8.0
F2.0
tp4589
I00
tp4590
F6.88259879421215e-11
s((F18.0
F8.0
F-1.0
tp4591
I00
tp4592
F0.0
s((F15.0
F11.0
F8.0
tp4593
I00
tp4594
F0.0
s((F13.0
F17.0
F10.0
tp4595
I00
tp4596
F0.0
s((F14.0
F15.0
F9.0
tp4597
I01
tp4598
F-0.30894000000000005
s((F20.0
F9.0
F5.0
tp4599
I00
tp4600
F0.00028603195678395335
s((F16.0
F16.0
F9.0
tp4601
I01
tp4602
F0.0
s((F5.0
F13.0
F7.0
tp4603
g6
tp4604
F-11.713975
s((F11.0
F19.0
F9.0
tp4605
g6
tp4606
F-5.5
s((F9.0
F15.0
F7.0
tp4607
I00
tp4608
F-0.011664000250000006
s((F4.0
F12.0
F9.0
tp4609
I00
tp4610
F-1.877744159223657e-17
s((F6.0
F16.0
F8.0
tp4611
g6
tp4612
F-5.7
s((F11.0
F10.0
F9.0
tp4613
I01
tp4614
F10.515528909589484
s((F5.0
F10.0
F3.0
tp4615
I00
tp4616
F0.0
s((F13.0
F9.0
F5.0
tp4617
I00
tp4618
F0.33334555761349804
s((F6.0
F5.0
F0.0
tp4619
g6
tp4620
F-3.0
s((F11.0
F13.0
F4.0
tp4621
I00
tp4622
F0.0
s((F10.0
F10.0
F5.0
tp4623
I00
tp4624
F13.65669030953212
s((F3.0
F11.0
F8.0
tp4625
I00
tp4626
F31.051108735497774
s((F10.0
F18.0
F5.0
tp4627
I00
tp4628
F0.0
s((F6.0
F14.0
F6.0
tp4629
I01
tp4630
F-7.246648282327008
s((F15.0
F18.0
F10.0
tp4631
I00
tp4632
F0.0
s((F18.0
F14.0
F8.0
tp4633
I00
tp4634
F0.0
s((F10.0
F15.0
F9.0
tp4635
I01
tp4636
F0.0
s((F7.0
F16.0
F9.0
tp4637
I00
tp4638
F-0.3906025
s((F16.0
F10.0
F10.0
tp4639
I01
tp4640
F0.0
s((F7.0
F12.0
F2.0
tp4641
I01
tp4642
F5.921656667903624
s((F18.0
F11.0
F4.0
tp4643
I00
tp4644
F4.682263699512911e-05
s((F2.0
F11.0
F5.0
tp4645
I00
tp4646
F0.0
s((F14.0
F15.0
F10.0
tp4647
I01
tp4648
F-0.65
s((F12.0
F17.0
F10.0
tp4649
I00
tp4650
F-1.045
s((F3.0
F13.0
F7.0
tp4651
I00
tp4652
F0.6330856565047525
s((F19.0
F11.0
F0.0
tp4653
I01
tp4654
F0.0
s((F16.0
F17.0
F10.0
tp4655
I01
tp4656
F0.0
s((F16.0
F3.0
F1.0
tp4657
g6
tp4658
F-8.0
s((F10.0
F18.0
F6.0
tp4659
I01
tp4660
F0.0
s((F12.0
F8.0
F9.0
tp4661
I00
tp4662
F0.0
s((F7.0
F16.0
F5.0
tp4663
I01
tp4664
F-0.007000000000000001
s((F6.0
F16.0
F8.0
tp4665
I00
tp4666
F-1.4695
s((F15.0
F5.0
F0.0
tp4667
g6
tp4668
F-7.5
s((F7.0
F15.0
F9.0
tp4669
g6
tp4670
F-18.259608500000002
s((F11.0
F16.0
F8.0
tp4671
I00
tp4672
F-3.1815859649207816
s((F14.0
F14.0
F8.0
tp4673
I00
tp4674
F-0.061252762189555485
s((F7.0
F13.0
F3.0
tp4675
I01
tp4676
F0.0
s((F15.0
F17.0
F9.0
tp4677
I00
tp4678
F0.0
s((F13.0
F13.0
F10.0
tp4679
I00
tp4680
F-0.8013771414066837
s((F16.0
F17.0
F9.0
tp4681
I00
tp4682
F0.0
s((F18.0
F11.0
F1.0
tp4683
I00
tp4684
F0.0001248191614841616
s((F14.0
F17.0
F7.0
tp4685
I01
tp4686
F0.0
s((F8.0
F11.0
F6.0
tp4687
I00
tp4688
F10.163729473867683
s((F7.0
F10.0
F8.0
tp4689
I00
tp4690
F0.0
s((F10.0
F17.0
F9.0
tp4691
I01
tp4692
F-0.45
s((F6.0
F14.0
F5.0
tp4693
I01
tp4694
F-5.230816509290133
s((F4.0
F13.0
F9.0
tp4695
I01
tp4696
F-0.28500000000000003
s((F18.0
F14.0
F10.0
tp4697
I00
tp4698
F0.0
s((F7.0
F17.0
F8.0
tp4699
I01
tp4700
F-0.025
s((F17.0
F9.0
F10.0
tp4701
I01
tp4702
F0.0010279110081888136
s((F10.0
F17.0
F10.0
tp4703
I00
tp4704
F-0.07600000000000001
s((F7.0
F13.0
F7.0
tp4705
g6
tp4706
F-12.0365
s((F10.0
F15.0
F10.0
tp4707
I01
tp4708
F-0.45
s((F2.0
F13.0
F6.0
tp4709
I01
tp4710
F0.0
s((F20.0
F11.0
F3.0
tp4711
I01
tp4712
F0.0
s((F19.0
F10.0
F9.0
tp4713
I00
tp4714
F0.0
s((F18.0
F9.0
F2.0
tp4715
I00
tp4716
F0.0
s((F6.0
F14.0
F9.0
tp4717
I00
tp4718
F-14.193186258616066
s((F12.0
F7.0
F7.0
tp4719
I00
tp4720
F0.0
s((F7.0
F16.0
F6.0
tp4721
I01
tp4722
F0.0
s((F19.0
F9.0
F7.0
tp4723
I00
tp4724
F0.00015996055640681876
s((F20.0
F12.0
F8.0
tp4725
I01
tp4726
F0.0
s((F9.0
F11.0
F6.0
tp4727
I01
tp4728
F7.414353920384579
s((F7.0
F15.0
F10.0
tp4729
I00
tp4730
F-1.7387400792878354
s((F17.0
F3.0
F-2.0
tp4731
g6
tp4732
F-8.5
s((F8.0
F11.0
F3.0
tp4733
I01
tp4734
F13.655482277499026
s((F8.0
F12.0
F9.0
tp4735
I00
tp4736
F0.0
s((F12.0
F15.0
F10.0
tp4737
I01
tp4738
F-2.2106885000000003
s((F15.0
F14.0
F9.0
tp4739
I01
tp4740
F0.0
s((F12.0
F7.0
F9.0
tp4741
I00
tp4742
F0.0
s((F8.0
F16.0
F5.0
tp4743
I00
tp4744
F-0.00022500000000000005
s((F5.0
F12.0
F1.0
tp4745
I00
tp4746
F1.6781469479530327
s((F4.0
F13.0
F10.0
tp4747
I01
tp4748
F-0.15000000000000002
s((F10.0
F9.0
F2.0
tp4749
I00
tp4750
F0.012106077365782352
s((F19.0
F15.0
F10.0
tp4751
I01
tp4752
F0.0
s((F14.0
F9.0
F2.0
tp4753
I01
tp4754
F0.006792826186241555
s((F17.0
F11.0
F7.0
tp4755
I01
tp4756
F0.0
s((F16.0
F10.0
F8.0
tp4757
I00
tp4758
F0.0
s((F15.0
F10.0
F5.0
tp4759
I00
tp4760
F0.0003164548244594088
s((F3.0
F13.0
F10.0
tp4761
g6
tp4762
F-7.028385000000001
s((F14.0
F12.0
F6.0
tp4763
I01
tp4764
F0.0
s((F8.0
F16.0
F8.0
tp4765
I00
tp4766
F0.0
s((F12.0
F11.0
F2.0
tp4767
I00
tp4768
F0.6797211771961886
s((F7.0
F14.0
F4.0
tp4769
I00
tp4770
F-0.17939261587974997
s((F13.0
F12.0
F8.0
tp4771
I01
tp4772
F0.0
s((F14.0
F16.0
F9.0
tp4773
I00
tp4774
F-0.2141817066000001
s((F20.0
F10.0
F1.0
tp4775
I01
tp4776
F7.145452847884121e-10
s((F14.0
F17.0
F8.0
tp4777
I00
tp4778
F0.0
s((F1.0
F13.0
F9.0
tp4779
I00
tp4780
F0.0
s((F16.0
F11.0
F2.0
tp4781
I01
tp4782
F0.0
s((F12.0
F12.0
F9.0
tp4783
I00
tp4784
F-0.6759009788092538
s((F16.0
F6.0
F1.0
tp4785
I01
tp4786
F0.0
s((F4.0
F13.0
F7.0
tp4787
g6
tp4788
F-2.0
s((F5.0
F11.0
F2.0
tp4789
I01
tp4790
F0.7034365883324729
s((F18.0
F12.0
F2.0
tp4791
I00
tp4792
F0.0001184083909192357
s((F11.0
F17.0
F5.0
tp4793
I00
tp4794
F0.0
s((F15.0
F10.0
F3.0
tp4795
I00
tp4796
F8.130083333796557e-09
s((F17.0
F7.0
F-1.0
tp4797
I00
tp4798
F-0.8
s((F18.0
F6.0
F-1.0
tp4799
I00
tp4800
F0.0
s((F3.0
F12.0
F6.0
tp4801
I00
tp4802
F0.048594331096496156
s((F9.0
F17.0
F10.0
tp4803
g6
tp4804
F-12.195
s((F8.0
F15.0
F10.0
tp4805
g6
tp4806
F-16.3804
s((F12.0
F14.0
F8.0
tp4807
I01
tp4808
F0.0
s((F19.0
F12.0
F7.0
tp4809
I01
tp4810
F0.0
s((F6.0
F9.0
F10.0
tp4811
I01
tp4812
F5.983414674179357
s((F0.0
F13.0
F8.0
tp4813
I01
tp4814
F79.41088678418552
s((F9.0
F17.0
F5.0
tp4815
I01
tp4816
F0.0
s((F8.0
F17.0
F4.0
tp4817
I00
tp4818
F0.0
s((F20.0
F14.0
F1.0
tp4819
I01
tp4820
F0.0
s((F9.0
F15.0
F10.0
tp4821
g6
tp4822
F-8.55
s((F20.0
F9.0
F1.0
tp4823
I01
tp4824
F1.9572928416335664e-05
s((F6.0
F12.0
F1.0
tp4825
I01
tp4826
F13.643466180430881
s((F20.0
F10.0
F2.0
tp4827
I01
tp4828
F6.312236442038762e-10
s((F8.0
F14.0
F9.0
tp4829
I00
tp4830
F-0.5075797798869524
s((F18.0
F8.0
F3.0
tp4831
I00
tp4832
F0.0
s((F13.0
F13.0
F9.0
tp4833
I00
tp4834
F-0.10006309019799949
s((F12.0
F14.0
F7.0
tp4835
g6
tp4836
F-6.0
s((F16.0
F6.0
F-1.0
tp4837
g6
tp4838
F-21.68
s((F12.0
F6.0
F6.0
tp4839
I00
tp4840
F0.0
s((F9.0
F19.0
F10.0
tp4841
g6
tp4842
F-8.55
s((F13.0
F11.0
F6.0
tp4843
I00
tp4844
F0.0
s((F4.0
F11.0
F9.0
tp4845
I00
tp4846
F0.0
s((F9.0
F17.0
F9.0
tp4847
I00
tp4848
F-0.32400000000000007
s((F17.0
F10.0
F9.0
tp4849
I01
tp4850
F0.0
s((F11.0
F8.0
F6.0
tp4851
I01
tp4852
F0.0
s((F11.0
F11.0
F9.0
tp4853
I01
tp4854
F-5.65730442660507e-05
s((F14.0
F8.0
F10.0
tp4855
I01
tp4856
F4.263093284937528e-05
s((F15.0
F9.0
F10.0
tp4857
I00
tp4858
F0.0
s((F8.0
F13.0
F8.0
tp4859
I00
tp4860
F-1.266561180518036
s((F17.0
F9.0
F1.0
tp4861
I00
tp4862
F0.0
s((F6.0
F13.0
F4.0
tp4863
I00
tp4864
F0.0
s((F6.0
F12.0
F6.0
tp4865
I00
tp4866
F7.850726918339708
s((F18.0
F11.0
F7.0
tp4867
I01
tp4868
F0.0
s((F18.0
F6.0
F1.0
tp4869
I01
tp4870
F0.0
s((F11.0
F7.0
F10.0
tp4871
I01
tp4872
F0.0
s((F-1.0
F11.0
F10.0
tp4873
g259
tp4874
F10.0
s((F19.0
F12.0
F3.0
tp4875
I00
tp4876
F6.122761363142234e-06
s((F6.0
F11.0
F4.0
tp4877
I00
tp4878
F1.5020852340471653
s((F12.0
F13.0
F8.0
tp4879
I01
tp4880
F-2.8693670500000006
s((F16.0
F4.0
F0.0
tp4881
g6
tp4882
F-8.0
s((F9.0
F18.0
F5.0
tp4883
I01
tp4884
F0.0
s((F19.0
F12.0
F0.0
tp4885
I01
tp4886
F0.0
s((F11.0
F16.0
F7.0
tp4887
g6
tp4888
F-28.693670500000003
s((F13.0
F9.0
F4.0
tp4889
I00
tp4890
F0.0
s((F2.0
F13.0
F8.0
tp4891
g6
tp4892
F-1.0
s((F16.0
F13.0
F7.0
tp4893
I00
tp4894
F0.0
s((F9.0
F13.0
F10.0
tp4895
I00
tp4896
F-3.2829949615
s((F10.0
F15.0
F4.0
tp4897
I00
tp4898
F0.0
s((F10.0
F16.0
F5.0
tp4899
I00
tp4900
F0.0
s((F12.0
F9.0
F2.0
tp4901
I01
tp4902
F4.524134769757418
s((F6.0
F13.0
F6.0
tp4903
I01
tp4904
F-7.5019899172009765
s((F7.0
F12.0
F6.0
tp4905
I00
tp4906
F0.7363091105242197
s((F7.0
F15.0
F9.0
tp4907
I00
tp4908
F-0.2950471696500001
s((F14.0
F12.0
F4.0
tp4909
I00
tp4910
F0.0
s((F20.0
F9.0
F2.0
tp4911
I01
tp4912
F9.024790129714112e-10
s((F8.0
F10.0
F5.0
tp4913
I01
tp4914
F0.5619884037523377
s((F11.0
F15.0
F7.0
tp4915
I00
tp4916
F0.0
s((F12.0
F13.0
F7.0
tp4917
I00
tp4918
F-3.205841459962988e-11
s((F11.0
F8.0
F9.0
tp4919
I01
tp4920
F0.0
s((F13.0
F13.0
F3.0
tp4921
I00
tp4922
F0.0
s((F10.0
F8.0
F9.0
tp4923
I00
tp4924
F0.0
s((F17.0
F10.0
F10.0
tp4925
I01
tp4926
F0.0
s((F17.0
F6.0
F-3.0
tp4927
g6
tp4928
F-8.5
s((F13.0
F7.0
F10.0
tp4929
I01
tp4930
F1.6611720615896176e-05
s((F19.0
F8.0
F0.0
tp4931
I01
tp4932
F0.0014207028307468756
s((F7.0
F12.0
F5.0
tp4933
I01
tp4934
F0.0
s((F11.0
F14.0
F9.0
tp4935
g6
tp4936
F-31.324303450000002
s((F15.0
F17.0
F7.0
tp4937
I00
tp4938
F0.0
s((F19.0
F13.0
F6.0
tp4939
I01
tp4940
F0.0
s((F12.0
F13.0
F9.0
tp4941
g6
tp4942
F-6.0
s((F8.0
F9.0
F2.0
tp4943
I01
tp4944
F9.751722390212343
s((F12.0
F18.0
F8.0
tp4945
I01
tp4946
F0.0
s((F10.0
F9.0
F10.0
tp4947
I00
tp4948
F0.0
s((F5.0
F15.0
F9.0
tp4949
g6
tp4950
F-21.96058363523577
s((F13.0
F10.0
F3.0
tp4951
I00
tp4952
F0.46769033064424304
s((F16.0
F15.0
F10.0
tp4953
I00
tp4954
F-0.0004374000000000002
s((F5.0
F9.0
F10.0
tp4955
g6
tp4956
F-8.5975
s((F19.0
F9.0
F2.0
tp4957
I00
tp4958
F0.0015595597436487657
s((F11.0
F18.0
F7.0
tp4959
g6
tp4960
F-10.45
s((F13.0
F14.0
F10.0
tp4961
I00
tp4962
F-0.10450000000000001
s((F16.0
F8.0
F1.0
tp4963
I00
tp4964
F-2.168
s((F18.0
F11.0
F6.0
tp4965
I01
tp4966
F0.0
s((F8.0
F8.0
F10.0
tp4967
I01
tp4968
F3.4613807764075246
s((F1.0
F13.0
F9.0
tp4969
g6
tp4970
F-3.7290670858355
s((F10.0
F14.0
F9.0
tp4971
g6
tp4972
F-26.085155
s((F8.0
F9.0
F1.0
tp4973
I00
tp4974
F0.0
s((F5.0
F9.0
F2.0
tp4975
g6
tp4976
F-2.5
s((F5.0
F9.0
F1.0
tp4977
g6
tp4978
F-2.5
s((F16.0
F5.0
F10.0
tp4979
I00
tp4980
F0.0
s((F20.0
F13.0
F1.0
tp4981
I00
tp4982
F0.0
s((F13.0
F10.0
F4.0
tp4983
I00
tp4984
F0.0731735325325977
s((F20.0
F12.0
F3.0
tp4985
I01
tp4986
F0.0
s((F13.0
F9.0
F7.0
tp4987
I00
tp4988
F1.5298186127522255e-06
s((F19.0
F11.0
F-1.0
tp4989
I00
tp4990
F0.0008180848108020413
s((F4.0
F9.0
F1.0
tp4991
g6
tp4992
F-2.0
s((F13.0
F7.0
F9.0
tp4993
I01
tp4994
F0.0
s((F12.0
F16.0
F6.0
tp4995
I00
tp4996
F0.0
s((F3.0
F12.0
F5.0
tp4997
I01
tp4998
F5.911642226257909e-05
s((F10.0
F12.0
F8.0
tp4999
I00
tp5000
F-0.0010015693202500005
s((F5.0
F10.0
F10.0
tp5001
I01
tp5002
F14.582008788016328
s((F11.0
F13.0
F7.0
tp5003
I00
tp5004
F-5.119080861823239e-05
s((F19.0
F10.0
F6.0
tp5005
I01
tp5006
F0.0
s((F19.0
F13.0
F5.0
tp5007
I01
tp5008
F0.0
s((F11.0
F12.0
F4.0
tp5009
I01
tp5010
F0.0
s((F17.0
F12.0
F9.0
tp5011
I00
tp5012
F0.0
s((F9.0
F14.0
F5.0
tp5013
I00
tp5014
F0.0
s((F9.0
F16.0
F9.0
tp5015
g6
tp5016
F-8.55
s((F10.0
F12.0
F6.0
tp5017
I00
tp5018
F10.191279610071913
s((F20.0
F12.0
F4.0
tp5019
I00
tp5020
F0.0
s((F13.0
F16.0
F6.0
tp5021
I00
tp5022
F0.0
s((F14.0
F14.0
F7.0
tp5023
I00
tp5024
F-0.03291081545720162
s((F18.0
F13.0
F3.0
tp5025
I01
tp5026
F0.0
s((F13.0
F15.0
F5.0
tp5027
I00
tp5028
F0.0
s((F5.0
F10.0
F9.0
tp5029
I00
tp5030
F0.0
s((F9.0
F9.0
F7.0
tp5031
I01
tp5032
F0.0
s((F19.0
F10.0
F1.0
tp5033
I00
tp5034
F0.001590698948786393
s((F18.0
F9.0
F10.0
tp5035
I00
tp5036
F0.0
s((F0.0
F11.0
F9.0
tp5037
I01
tp5038
F8.64914828232701
s((F1.0
F12.0
F9.0
tp5039
I01
tp5040
F0.0
s((F16.0
F11.0
F6.0
tp5041
I00
tp5042
F0.0
s((F12.0
F9.0
F5.0
tp5043
I00
tp5044
F7.694112608923548
s((F20.0
F12.0
F0.0
tp5045
I01
tp5046
F0.0
s((F4.0
F9.0
F10.0
tp5047
g6
tp5048
F-3.8
s((F15.0
F14.0
F6.0
tp5049
I00
tp5050
F0.0
s((F15.0
F9.0
F5.0
tp5051
I00
tp5052
F1.0037139918267355e-08
s((F13.0
F8.0
F9.0
tp5053
I01
tp5054
F3.731227596502678e-06
s((F12.0
F15.0
F7.0
tp5055
I00
tp5056
F0.0
s((F12.0
F10.0
F10.0
tp5057
I00
tp5058
F0.37581738123206504
s((F7.0
F10.0
F10.0
tp5059
I01
tp5060
F13.654940539608097
s((F18.0
F8.0
F1.0
tp5061
I01
tp5062
F0.0020344948346759043
s((F7.0
F14.0
F10.0
tp5063
g6
tp5064
F-18.259608500000002
s((F19.0
F10.0
F5.0
tp5065
I01
tp5066
F0.0
s((F17.0
F8.0
F4.0
tp5067
I00
tp5068
F0.0
s((F13.0
F13.0
F7.0
tp5069
I01
tp5070
F0.0
s((F8.0
F15.0
F5.0
tp5071
I00
tp5072
F0.0
s((F11.0
F14.0
F9.0
tp5073
I00
tp5074
F-4.500062672295285
s((F9.0
F10.0
F8.0
tp5075
I00
tp5076
F0.0
s((F11.0
F12.0
F3.0
tp5077
I01
tp5078
F0.0
s((F11.0
F9.0
F1.0
tp5079
g6
tp5080
F-5.5
s((F17.0
F4.0
F0.0
tp5081
I01
tp5082
F0.0
s((F9.0
F17.0
F10.0
tp5083
I01
tp5084
F-0.0665
s((F13.0
F12.0
F6.0
tp5085
I01
tp5086
F0.0
s((F6.0
F18.0
F10.0
tp5087
g6
tp5088
F-3.0
s((F7.0
F17.0
F7.0
tp5089
I01
tp5090
F0.0
s((F20.0
F14.0
F5.0
tp5091
I00
tp5092
F0.0
s((F9.0
F12.0
F3.0
tp5093
I00
tp5094
F13.656050813981517
s((F7.0
F17.0
F10.0
tp5095
I01
tp5096
F-0.665
s((F11.0
F9.0
F9.0
tp5097
I01
tp5098
F1.3672882511584512
s((F17.0
F9.0
F4.0
tp5099
I00
tp5100
F1.8798936763729323e-05
s((F11.0
F15.0
F7.0
tp5101
g6
tp5102
F-10.45
s((F12.0
F10.0
F9.0
tp5103
I01
tp5104
F0.0
s((F12.0
F11.0
F8.0
tp5105
I01
tp5106
F0.0
s((F10.0
F10.0
F2.0
tp5107
I01
tp5108
F13.658273648570166
s((F11.0
F18.0
F7.0
tp5109
I00
tp5110
F0.0
s((F16.0
F3.0
F0.0
tp5111
g6
tp5112
F-8.0
s((F13.0
F6.0
F9.0
tp5113
I00
tp5114
F0.0
s((F10.0
F19.0
F10.0
tp5115
g6
tp5116
F-5.0
s((F16.0
F11.0
F3.0
tp5117
I01
tp5118
F0.0
s((F6.0
F16.0
F9.0
tp5119
g6
tp5120
F-5.7
s((F17.0
F8.0
F-1.0
tp5121
g6
tp5122
F-8.5
s((F20.0
F13.0
F6.0
tp5123
I00
tp5124
F0.0
s((F4.0
F11.0
F5.0
tp5125
I01
tp5126
F10.267388943109063
s((F16.0
F14.0
F10.0
tp5127
I00
tp5128
F0.0
s((F14.0
F10.0
F6.0
tp5129
I00
tp5130
F0.0
s((F3.0
F13.0
F8.0
tp5131
I00
tp5132
F0.0
s((F15.0
F6.0
F10.0
tp5133
I01
tp5134
F2.774824542102544e-07
s((F18.0
F12.0
F6.0
tp5135
I00
tp5136
F0.0
s((F18.0
F9.0
F-2.0
tp5137
I00
tp5138
F0.0
s((F8.0
F12.0
F2.0
tp5139
I00
tp5140
F13.604331040010504
s((F11.0
F9.0
F5.0
tp5141
I00
tp5142
F10.121174625551681
s((F20.0
F14.0
F2.0
tp5143
I01
tp5144
F0.0
s((F12.0
F15.0
F8.0
tp5145
g6
tp5146
F-6.0
s((F6.0
F7.0
F0.0
tp5147
g6
tp5148
F-3.0
s((F19.0
F9.0
F5.0
tp5149
I00
tp5150
F0.0003101835269941623
s((F11.0
F19.0
F7.0
tp5151
g6
tp5152
F-5.5
s((F16.0
F7.0
F10.0
tp5153
I00
tp5154
F2.496529090711288e-08
s((F14.0
F11.0
F3.0
tp5155
I01
tp5156
F0.0
s((F19.0
F11.0
F7.0
tp5157
I01
tp5158
F0.0
s((F13.0
F7.0
F7.0
tp5159
I00
tp5160
F0.0
s((F5.0
F17.0
F9.0
tp5161
g6
tp5162
F-11.713975
s((F7.0
F13.0
F9.0
tp5163
I00
tp5164
F-0.9722651141299351
s((F5.0
F13.0
F10.0
tp5165
I01
tp5166
F-0.2
s((F15.0
F13.0
F7.0
tp5167
I01
tp5168
F0.0
s((F20.0
F14.0
F3.0
tp5169
I01
tp5170
F0.0
s((F7.0
F14.0
F6.0
tp5171
I01
tp5172
F-2.368749935876502
s((F17.0
F12.0
F7.0
tp5173
I01
tp5174
F0.0
s((F11.0
F17.0
F8.0
tp5175
g6
tp5176
F-18.9145
s((F11.0
F9.0
F6.0
tp5177
I01
tp5178
F0.0
s((F13.0
F9.0
F8.0
tp5179
I00
tp5180
F0.0
s((F6.0
F14.0
F3.0
tp5181
I00
tp5182
F-5.857226938185302
s((F12.0
F10.0
F10.0
tp5183
I01
tp5184
F0.0
s((F19.0
F14.0
F8.0
tp5185
I01
tp5186
F0.0
s((F11.0
F11.0
F4.0
tp5187
I00
tp5188
F13.358980795491084
s((F17.0
F11.0
F5.0
tp5189
I01
tp5190
F0.0
s((F6.0
F12.0
F9.0
tp5191
I01
tp5192
F0.0
s((F18.0
F11.0
F10.0
tp5193
I01
tp5194
F0.0
s((F19.0
F11.0
F4.0
tp5195
I00
tp5196
F4.121807408957157e-05
s((F16.0
F11.0
F8.0
tp5197
I01
tp5198
F0.0
s((F16.0
F13.0
F6.0
tp5199
I00
tp5200
F0.0
s((F16.0
F9.0
F4.0
tp5201
I00
tp5202
F6.34207845071089e-10
s((F16.0
F10.0
F7.0
tp5203
I00
tp5204
F0.0
s((F7.0
F13.0
F10.0
tp5205
I01
tp5206
F-1.6900443619681003
s((F16.0
F5.0
F10.0
tp5207
g6
tp5208
F-15.2
s((F15.0
F7.0
F8.0
tp5209
I01
tp5210
F0.0
s((F15.0
F15.0
F7.0
tp5211
I00
tp5212
F-0.049381157326190916
s((F16.0
F8.0
F0.0
tp5213
g6
tp5214
F-15.2
s((F9.0
F9.0
F10.0
tp5215
I00
tp5216
F1.9249988175527344
s((F14.0
F13.0
F10.0
tp5217
I00
tp5218
F0.0
s((F14.0
F9.0
F10.0
tp5219
I00
tp5220
F0.0
s((F12.0
F12.0
F7.0
tp5221
I00
tp5222
F-4.011953509398946e-06
s((F19.0
F14.0
F4.0
tp5223
I00
tp5224
F0.0
s((F13.0
F10.0
F8.0
tp5225
I00
tp5226
F0.0
s((F14.0
F14.0
F9.0
tp5227
I00
tp5228
F0.0
s((F11.0
F13.0
F8.0
tp5229
g6
tp5230
F-18.9145
s((F17.0
F9.0
F9.0
tp5231
I00
tp5232
F0.0
s((F19.0
F8.0
F4.0
tp5233
I00
tp5234
F0.0
s((F18.0
F11.0
F9.0
tp5235
I00
tp5236
F0.0
s((F3.0
F11.0
F6.0
tp5237
I00
tp5238
F0.01836324081903209
s((F11.0
F10.0
F2.0
tp5239
I00
tp5240
F1.3297100383678542
s((F15.0
F10.0
F6.0
tp5241
I01
tp5242
F0.0
s((F16.0
F9.0
F3.0
tp5243
I01
tp5244
F0.001297927416973126
s((F16.0
F15.0
F8.0
tp5245
I01
tp5246
F0.0
s((F11.0
F12.0
F8.0
tp5247
I01
tp5248
F-0.045000000000000005
s((F5.0
F8.0
F1.0
tp5249
g6
tp5250
F-8.5975
s((F18.0
F5.0
F-1.0
tp5251
I01
tp5252
F0.0
s((F7.0
F14.0
F3.0
tp5253
I00
tp5254
F1.2140882539675943
s((F5.0
F16.0
F8.0
tp5255
g6
tp5256
F-10.23775
s((F0.0
F13.0
F10.0
tp5257
I01
tp5258
F83.18705976848139
s((F19.0
F14.0
F7.0
tp5259
I01
tp5260
F0.0
s((F6.0
F16.0
F7.0
tp5261
I00
tp5262
F-4.212209774500001
s((F10.0
F15.0
F8.0
tp5263
g6
tp5264
F-9.5
s((F19.0
F15.0
F9.0
tp5265
I00
tp5266
F0.0
s((F2.0
F12.0
F9.0
tp5267
I01
tp5268
F6.644935676043731
s((F20.0
F13.0
F8.0
tp5269
I00
tp5270
F0.0
s((F17.0
F10.0
F7.0
tp5271
I00
tp5272
F0.0
s((F6.0
F14.0
F7.0
tp5273
g6
tp5274
F-10.317
s((F12.0
F9.0
F10.0
tp5275
I01
tp5276
F0.3164384739584819
s((F19.0
F8.0
F3.0
tp5277
I01
tp5278
F1.1351591629706117e-10
s((F5.0
F11.0
F10.0
tp5279
I00
tp5280
F0.0
s((F10.0
F13.0
F8.0
tp5281
g6
tp5282
F-20.4755
s((F6.0
F12.0
F3.0
tp5283
I01
tp5284
F0.0
s((F15.0
F10.0
F9.0
tp5285
I00
tp5286
F0.0
s((F13.0
F16.0
F9.0
tp5287
I01
tp5288
F0.0
s((F17.0
F6.0
F1.0
tp5289
I00
tp5290
F0.0
s((F6.0
F12.0
F4.0
tp5291
I01
tp5292
F1.6827834571740696
s.